(dp1
S'GAL_BATCH_mu=0.26_S'
p2
(dp3
S'G6PDH2r'
p4
(dp5
S'b1852'
p6
F1
ssS'PMDPHT'
p7
(dp8
sS'PMEACPE'
p9
(dp10
S'b3412'
p11
F1
ssS'UAMAGS'
p12
(dp13
S'b0088'
p14
F1
ssS'PGI'
p15
(dp16
S'b4025'
p17
F1
ssS'DDPA'
p18
(dp19
S'b1704'
p20
F1
sS'b2601'
p21
F1
sS'b0754'
p22
F1
ssS'DHPS2'
p23
(dp24
S'b3177'
p25
F1
ssS'BMOCOS'
p26
(dp27
S'b0827'
p28
F2
ssS'ACACT4r'
p29
(dp30
S'b3845'
p31
F7
sS'b2342'
p32
F7
ssS'P5CR'
p33
(dp34
S'b0386'
p35
F1
ssS'TMPPP'
p36
(dp37
S'b3993'
p38
F1
ssS'ATPM'
p39
(dp40
sS'GLUTRR'
p41
(dp42
S'b1210'
p43
F1
ssS'GLUTRS'
p44
(dp45
S'b2400'
p46
F1
ssS'PHETA1_reverse'
p47
(dp48
S'b3770'
p49
F4
sS'b4054'
p50
F3
sS'b0928'
p51
F3
ssS'MN2tpp'
p52
(dp53
S'b3040'
p54
F5
ssS'RNTR1c2'
p55
(dp56
S'b4238'
p57
F2
sS'b3924'
p58
F3
sS'b4237'
p59
F2
sS'b0684'
p60
F5
sS'b2895'
p61
F5
ssS'Ec_biomass_iJO1366_core_53p95M'
p62
(dp63
sS'HBZOPT'
p64
(dp65
S'b4040'
p66
F1
ssS'MOADSUx'
p67
(dp68
S'b0784'
p69
F2
sS'b2530'
p70
F6
ssS'ACACT3r'
p71
(dp72
g31
F7
sg32
F7
ssS'PDX5PS'
p73
(dp74
S'b2564'
p75
F1
sS'b0052'
p76
F1
ssS'THDPS'
p77
(dp78
S'b0166'
p79
F1
ssS'PANTS'
p80
(dp81
S'b0133'
p82
F1
ssS'E4PD'
p83
(dp84
S'b2927'
p85
F1
sS'b1779'
p86
F2
ssS'GALtex'
p87
(dp88
S'b0241'
p89
F26
sS'b2215'
p90
F26
sS'b0929'
p91
F26
sS'b1377'
p92
F26
ssS'PGM_reverse'
p93
(dp94
S'b3612'
p95
F1
sS'b4395'
p96
F1
sS'b0755'
p97
F1
ssS'EX_pi_e_reverse'
p98
(dp99
sS'PPNCL2'
p100
(dp101
S'b3639'
p102
F2
ssS'ACLS'
p103
(dp104
S'b3671'
p105
F2
sS'b3670'
p106
F2
sS'b0078'
p107
F2
sS'b0077'
p108
F2
ssS'DHPPDA2'
p109
(dp110
S'b0414'
p111
F2
ssS'ACODA'
p112
(dp113
S'b3957'
p114
F1
ssS'ACOTA_reverse'
p115
(dp116
S'b1748'
p117
F1
sS'b3359'
p118
F2
ssS'LALDO2x'
p119
(dp120
S'b3945'
p121
F2
ssS'EX_mobd_e_reverse'
p122
(dp123
sS'MEOHtex_reverse'
p124
(dp125
g89
F26
sg90
F26
sg92
F26
sg91
F26
ssS'EX_etoh_e'
p126
(dp127
sS'EX_h_e'
p128
(dp129
sS'MCITS'
p130
(dp131
S'b0333'
p132
F1
ssS'APRAUR'
p133
(dp134
g111
F2
ssS'MCITD'
p135
(dp136
S'b0334'
p137
F1
ssS'CYTBO3_4pp'
p138
(dp139
S'b0432'
p140
F1
sS'b0429'
p141
F1
sS'b0430'
p142
F1
sS'b0431'
p143
F1
ssS'IG3PS'
p144
(dp145
S'b2025'
p146
F1
sS'b2023'
p147
F1
ssS'ALAt2rpp_reverse'
p148
(dp149
sS'UGLT'
p150
(dp151
S'b0758'
p152
F1
ssS'PE160abcpp'
p153
(dp154
S'b0914'
p155
F3
ssS'PPND'
p156
(dp157
S'b2600'
p158
F2
ssS'ADSL2r'
p159
(dp160
S'b1131'
p161
F2
ssS'DNMPPA'
p162
(dp163
sS'MICITDr'
p164
(dp165
S'b0118'
p166
F3
ssS'UAGPT3'
p167
(dp168
S'b0090'
p169
F1
ssS'ACHBS'
p170
(dp171
g105
F2
sg106
F2
sg107
F2
sg108
F2
ssS'GART'
p172
(dp173
S'b1849'
p174
F2
ssS'TRDR'
p175
(dp176
S'b3781'
p177
F5
sS'b2582'
p178
F5
sS'b0888'
p179
F1
ssS'THD2pp'
p180
(dp181
S'b1602'
p182
F1
sS'b1603'
p183
F1
ssS'ACOAD2f_reverse'
p184
(dp185
S'b0221'
p186
F7
ssS'TYRL'
p187
(dp188
S'b3991'
p189
F1
ssS'ABTA'
p190
(dp191
S'b1302'
p192
F1
sS'b2662'
p193
F1
ssS'LEUTAi'
p194
(dp195
g49
F4
sg50
F3
ssS'RPI_reverse'
p196
(dp197
S'b2914'
p198
F1
sS'b4090'
p199
F1
ssS'MG2t3_2pp'
p200
(dp201
sS'NNATr'
p202
(dp203
S'b0639'
p204
F1
ssS'PIt2rpp'
p205
(dp206
S'b3493'
p207
F1
sS'b2987'
p208
F1
ssS'PE161abcpp'
p209
(dp210
g155
F3
ssS'MLDEP1pp'
p211
(dp212
sS'SDPDS'
p213
(dp214
S'b2472'
p215
F1
ssS'HMBS'
p216
(dp217
S'b3805'
p218
F1
ssS'MDH'
p219
(dp220
S'b3236'
p221
F1
ssS'PPBNGS'
p222
(dp223
S'b0369'
p224
F1
ssS'QUINDH_reverse'
p225
(dp226
S'b1692'
p227
F2
ssS'PPPGO3'
p228
(dp229
S'b3850'
p230
F1
ssS'FCLT'
p231
(dp232
S'b0475'
p233
F1
ssS'ASPK'
p234
(dp235
S'b4024'
p236
F1
sS'b0002'
p237
F2
sS'b3940'
p238
F2
ssS'ASPT'
p239
(dp240
S'b4139'
p241
F1
ssS'DHFR'
p242
(dp243
S'b1606'
p244
F1
sS'b0048'
p245
F1
ssS'IPPMIa_reverse'
p246
(dp247
S'b0072'
p248
F2
sS'b0071'
p249
F2
ssS'EX_12ppd_R_e'
p250
(dp251
sS'EX_meoh_e'
p252
(dp253
sS'MOHMT'
p254
(dp255
S'b0134'
p256
F1
ssS'SADT2'
p257
(dp258
S'b2751'
p259
F1
sS'b2752'
p260
F1
ssS'IPPMIb_reverse'
p261
(dp262
g248
F2
sg249
F2
ssS'DHDPS'
p263
(dp264
S'b2478'
p265
F1
ssS'UDCPDP'
p266
(dp267
S'b0841'
p268
F1
sS'b1278'
p269
F1
sS'b3057'
p270
F1
ssS'HCYSMT'
p271
(dp272
S'b0261'
p273
F1
ssS'HACD5'
p274
(dp275
S'b3846'
p276
F15
sS'b2341'
p277
F14
ssS'DHAD1'
p278
(dp279
S'b3771'
p280
F2
ssS'DHAD2'
p281
(dp282
g280
F2
ssS'HACD4'
p283
(dp284
g276
F15
sg277
F14
ssS'EDA'
p285
(dp286
S'b1850'
p287
F1
ssS'MLTP3_reverse'
p288
(dp289
S'b3417'
p290
F1
ssS'MNtex'
p291
(dp292
g89
F26
sg90
F26
sg91
F26
sg92
F26
ssS'EDD'
p293
(dp294
S'b1851'
p295
F1
ssS'UAPGR'
p296
(dp297
S'b3972'
p298
F1
ssS'MMM'
p299
(dp300
S'b2917'
p301
F1
ssS'MEPCT'
p302
(dp303
S'b2747'
p304
F1
ssS'PRPPS'
p305
(dp306
S'b1207'
p307
F1
ssS'DPR'
p308
(dp309
S'b0425'
p310
F1
sS'b3774'
p311
F3
ssS'KARA1_reverse'
p312
(dp313
g311
F3
ssS'MLTGY3pp'
p314
(dp315
S'b2813'
p316
F1
sS'b2701'
p317
F1
sS'b4392'
p318
F1
sS'b2558'
p319
F1
sS'b1193'
p320
F1
sS'b2963'
p321
F1
ssS'DHFS'
p322
(dp323
S'b2315'
p324
F1
ssS'ACKr'
p325
(dp326
S'b3115'
p327
F1
sS'b2296'
p328
F1
sg174
F2
ssS'VALTA_reverse'
p329
(dp330
g49
F4
ssS'MPTSS'
p331
(dp332
S'b0826'
p333
F1
ssS'EX_cl_e_reverse'
p334
(dp335
sS'HEX7'
p336
(dp337
S'b0394'
p338
F1
ssS'OGMEACPD'
p339
(dp340
S'b0180'
p341
F2
ssS'G1PACT'
p342
(dp343
S'b3730'
p344
F2
ssS'PPNDH'
p345
(dp346
S'b2599'
p347
F2
ssS'PGL'
p348
(dp349
S'b0767'
p350
F1
ssS'ADK1'
p351
(dp352
S'b0474'
p353
F8
ssS'GLUPRT'
p354
(dp355
S'b2312'
p356
F1
ssS'OGMEACPS'
p357
(dp358
S'b1091'
p359
F1
ssS'SUCOAS'
p360
(dp361
S'b0728'
p362
F1
sS'b0729'
p363
F1
ssS'CHORS'
p364
(dp365
S'b2329'
p366
F1
ssS'FEROpp'
p367
(dp368
S'b0123'
p369
F1
ssS'FE2tpp'
p370
(dp371
g54
F5
ssS'OCTDPS'
p372
(dp373
S'b3187'
p374
F1
ssS'DHNPA2r'
p375
(dp376
S'b3058'
p377
F1
ssS'KDOPP'
p378
(dp379
S'b3198'
p380
F1
ssS'KDOPS'
p381
(dp382
S'b1215'
p383
F1
ssS'OCBT'
p384
(dp385
S'b4254'
p386
F1
sS'b0273'
p387
F1
ssS'ACOAD7f_reverse'
p388
(dp389
g186
F7
ssS'FADRx'
p390
(dp391
S'b3844'
p392
F1
ssS'FTHFLi'
p393
(dp394
sS'ICYSDS'
p395
(dp396
g70
F6
ssS'UPP3S'
p397
(dp398
S'b3804'
p399
F1
ssS'PPM_reverse'
p400
(dp401
S'b3380'
p402
F1
sS'b4383'
p403
F1
ssS'USHD'
p404
(dp405
S'b0524'
p406
F1
ssS'GMPS2'
p407
(dp408
S'b2507'
p409
F1
ssS'UAAGDS'
p410
(dp411
S'b0085'
p412
F1
ssS'ALATA_L_reverse'
p413
(dp414
S'b2379'
p415
F1
sS'b2290'
p416
F1
ssS'PRAMPC'
p417
(dp418
S'b2026'
p419
F2
ssS'I2FE2SS2'
p420
(dp421
g70
F6
sS'b3807'
p422
F2
sS'b2529'
p423
F6
ssS'RHCCE'
p424
(dp425
S'b2687'
p426
F1
ssS'CYSS'
p427
(dp428
S'b2421'
p429
F1
sS'b2414'
p430
F1
ssS'DUTPDP'
p431
(dp432
S'b3640'
p433
F1
sS'b2251'
p434
F1
ssS'IPMD'
p435
(dp436
S'b0073'
p437
F1
ssS'GALt2pp'
p438
(dp439
S'b2943'
p440
F1
ssS'PRATPP'
p441
(dp442
g419
F2
ssS'BMOGDS1'
p443
(dp444
S'b3857'
p445
F2
sS'b3856'
p446
F2
ssS'PAPSR'
p447
(dp448
S'b2762'
p449
F1
sg177
F5
sg178
F5
ssS'5DOAN'
p450
(dp451
S'b0159'
p452
F2
ssS'BMOGDS2'
p453
(dp454
g445
F2
sg446
F2
ssS'DHDPRy'
p455
(dp456
S'b0031'
p457
F1
ssS'PRAIS'
p458
(dp459
S'b2499'
p460
F1
ssS'MECDPS'
p461
(dp462
S'b2746'
p463
F1
ssS'MPTAT'
p464
(dp465
S'b0009'
p466
F1
ssS'SO4tex'
p467
(dp468
g89
F26
sg90
F26
sg91
F26
sg92
F26
ssS'ASAD_reverse'
p469
(dp470
S'b3433'
p471
F1
ssS'PGCD'
p472
(dp473
S'b2913'
p474
F1
ssS'IMPD'
p475
(dp476
S'b2508'
p477
F1
ssS'MALCOAMT'
p478
(dp479
S'b0777'
p480
F1
ssS'OGMEACPR'
p481
(dp482
S'b1093'
p483
F3
ssS'PGAMT_reverse'
p484
(dp485
S'b3176'
p486
F1
ssS'TPI'
p487
(dp488
S'b3919'
p489
F1
ssS'ACONTa'
p490
(dp491
g166
F3
sS'b1276'
p492
F2
ssS'ACONTb'
p493
(dp494
g166
F3
sg492
F2
ssS'DALAt2pp'
p495
(dp496
S'b4208'
p497
F1
ssS'CO2tex_reverse'
p498
(dp499
g89
F26
sg90
F26
sg91
F26
sg92
F26
ssS'PGK_reverse'
p500
(dp501
S'b2926'
p502
F1
ssS'DAPDC'
p503
(dp504
S'b2838'
p505
F1
ssS'PSCVT'
p506
(dp507
S'b0908'
p508
F1
ssS'3OAS140'
p509
(dp510
S'b1095'
p511
F1
sS'b2323'
p512
F2
ssS'PSSA161'
p513
(dp514
S'b2585'
p515
F2
ssS'PSSA160'
p516
(dp517
g515
F2
ssS'PYK'
p518
(dp519
S'b1676'
p520
F1
sS'b1854'
p521
F1
ssS'ASPCT'
p522
(dp523
S'b4245'
p524
F1
sS'b4244'
p525
F1
ssS'ETOHtex_reverse'
p526
(dp527
g89
F26
sg90
F26
sg91
F26
sg92
F26
ssS'ATPS4rpp'
p528
(dp529
S'b3734'
p530
F1
sS'b3735'
p531
F1
sS'b3736'
p532
F1
sS'b3737'
p533
F1
sS'b3731'
p534
F1
sS'b3732'
p535
F1
sS'b3733'
p536
F1
sS'b3738'
p537
F1
sS'b3739'
p538
F1
ssS'LCARR'
p539
(dp540
sS'XAND'
p541
(dp542
S'b2868'
p543
F2
sS'b2867'
p544
F2
sS'b2866'
p545
F2
ssS'CLtex'
p546
(dp547
g89
F26
sg90
F26
sg92
F26
sg91
F26
ssS'AGPAT160'
p548
(dp549
S'b3018'
p550
F2
ssS'AGPAT161'
p551
(dp552
g550
F2
ssS'AIRC3_reverse'
p553
(dp554
S'b0523'
p555
F1
ssS'DXPS'
p556
(dp557
S'b0420'
p558
F1
ssS'12PPDRtpp_reverse'
p559
(dp560
sS'PPKr_reverse'
p561
(dp562
S'b2501'
p563
F1
ssS'FUM'
p564
(dp565
S'b4122'
p566
F1
sS'b1611'
p567
F1
sS'b1612'
p568
F1
ssS'PRMICI'
p569
(dp570
S'b2024'
p571
F1
ssS'DAPE'
p572
(dp573
S'b3809'
p574
F1
ssS'O2tex'
p575
(dp576
g89
F26
sg90
F26
sg92
F26
sg91
F26
ssS'DBTS'
p577
(dp578
S'b0778'
p579
F1
ssS'UPP3MT'
p580
(dp581
S'b3803'
p582
F1
sS'b3368'
p583
F3
ssS'KARA2'
p584
(dp585
g311
F3
ssS'ZN2tpp'
p586
(dp587
g54
F5
ssS'FMNAT'
p588
(dp589
S'b0025'
p590
F2
ssS'ENO'
p591
(dp592
S'b2779'
p593
F1
ssS'ACOAD3f_reverse'
p594
(dp595
g186
F7
ssS'EX_mg2_e_reverse'
p596
(dp597
sS'HACD1'
p598
(dp599
g276
F15
sg277
F14
ssS'AOXSr2'
p600
(dp601
S'b0776'
p602
F1
ssS'HACD3'
p603
(dp604
g276
F15
sg277
F14
ssS'HACD2'
p605
(dp606
g276
F15
sg277
F14
ssS'3PEPTabcpp'
p607
(dp608
S'b1246'
p609
F1
sS'b1247'
p610
F1
sS'b1244'
p611
F1
sS'b1245'
p612
F1
sS'b1329'
p613
F1
ssS'G1SAT'
p614
(dp615
S'b0154'
p616
F1
ssS'HACD7'
p617
(dp618
g276
F15
sg277
F14
ssS'HACD6'
p619
(dp620
g276
F15
sg277
F14
ssS'SHCHF'
p621
(dp622
g583
F3
ssS'ACACT5r'
p623
(dp624
g31
F7
sg32
F7
ssS'ALCD2x_reverse'
p625
(dp626
S'b0356'
p627
F1
sS'b1241'
p628
F2
sS'b1478'
p629
F1
ssS'MCTP1App'
p630
(dp631
S'b0149'
p632
F3
sS'b3396'
p633
F3
sS'b0635'
p634
F1
sS'b0084'
p635
F1
ssS'DM_4CRSOL'
p636
(dp637
sS'FRD2'
p638
(dp639
S'b4154'
p640
F1
sS'b4151'
p641
F1
sS'b4153'
p642
F1
sS'b4152'
p643
F1
ssS'GLYCTO2'
p644
(dp645
S'b4467'
p646
F1
sS'b2979'
p647
F1
sS'b4468'
p648
F1
ssS'EX_for_e'
p649
(dp650
sS'ADSS'
p651
(dp652
S'b4177'
p653
F1
ssS'GLUR_reverse'
p654
(dp655
S'b3967'
p656
F1
ssS'EX_akg_e'
p657
(dp658
sS'SHSL1'
p659
(dp660
S'b3939'
p661
F1
ssS'MTHFR2'
p662
(dp663
S'b3941'
p664
F1
ssS'PSP_L'
p665
(dp666
S'b4388'
p667
F1
ssS'G5SD'
p668
(dp669
S'b0243'
p670
F1
ssS'IGPS'
p671
(dp672
S'b1262'
p673
F2
ssS'ADSK'
p674
(dp675
S'b2750'
p676
F1
ssS'DNTPPA'
p677
(dp678
S'b0099'
p679
F1
sS'b1865'
p680
F1
ssS'EX_o2_e_reverse'
p681
(dp682
sS'PUNP1_reverse'
p683
(dp684
S'b4384'
p685
F1
ssS'12PPDRtex_reverse'
p686
(dp687
g89
F26
sg90
F26
sg91
F26
sg92
F26
ssS'AKGtex_reverse'
p688
(dp689
g89
F26
sg90
F26
sg92
F26
sg91
F26
ssS'AIRC2'
p690
(dp691
S'b0522'
p692
F1
ssS'MCITL2'
p693
(dp694
S'b0331'
p695
F1
ssS'MPTS'
p696
(dp697
g69
F2
sS'b0785'
p698
F1
ssS'DB4PS'
p699
(dp700
S'b3041'
p701
F1
ssS'HISTP'
p702
(dp703
S'b2022'
p704
F2
ssS'MPTG'
p705
(dp706
S'b2519'
p707
F1
sg632
F3
sg633
F3
sS'b1069'
p708
F1
ssS'TMDS'
p709
(dp710
S'b2827'
p711
F1
ssS'IGPDH'
p712
(dp713
g704
F2
ssS'PDH'
p714
(dp715
S'b0115'
p716
F1
sS'b0114'
p717
F1
sS'b0116'
p718
F1
ssS'HISTD'
p719
(dp720
S'b2020'
p721
F1
ssS'ASP1DC'
p722
(dp723
S'b0131'
p724
F1
ssS'UAGAAT'
p725
(dp726
S'b1094'
p727
F7
sS'b0181'
p728
F1
ssS'G3PD2_reverse'
p729
(dp730
S'b3608'
p731
F1
ssS'I2FE2SR'
p732
(dp733
g70
F6
sg423
F6
ssS'I2FE2SS'
p734
(dp735
g423
F6
sg70
F6
sg422
F2
ssS'NI2tpp'
p736
(dp737
S'b3816'
p738
F2
ssS'I2FE2ST'
p739
(dp740
S'b2528'
p741
F2
sg423
F6
ssS'SSALy'
p742
(dp743
S'b2661'
p744
F1
sS'b1525'
p745
F1
ssS'ASPTA_reverse'
p746
(dp747
g51
F3
ssS'SDPTA_reverse'
p748
(dp749
g118
F2
ssS'SERD_L'
p750
(dp751
S'b2797'
p752
F1
sS'b1814'
p753
F1
sS'b3708'
p754
F1
sS'b4471'
p755
F1
ssS'I4FE4ST'
p756
(dp757
g741
F2
sg423
F6
ssS'I4FE4SR'
p758
(dp759
g423
F6
ssS'OPMEACPD'
p760
(dp761
g341
F2
ssS'DXPRIi'
p762
(dp763
S'b0173'
p764
F1
ssS'OPMEACPS'
p765
(dp766
g512
F2
ssS'OPMEACPR'
p767
(dp768
g483
F3
ssS'DM_MTHTHF'
p769
(dp770
sS'UDPG4E_reverse'
p771
(dp772
S'b0759'
p773
F1
ssS'NADH17pp'
p774
(dp775
S'b2283'
p776
F2
sS'b2282'
p777
F2
sS'b2281'
p778
F2
sS'b2280'
p779
F2
sS'b2276'
p780
F2
sS'b2277'
p781
F2
sS'b2285'
p782
F2
sS'b2284'
p783
F2
sS'b2278'
p784
F2
sS'b2288'
p785
F2
sS'b2279'
p786
F2
sS'b2287'
p787
F2
sS'b2286'
p788
F2
ssS'DHORDfum'
p789
(dp790
sS'CLt3_2pp'
p791
(dp792
S'b1592'
p793
F1
sS'b0155'
p794
F1
ssS'ACOAD4f_reverse'
p795
(dp796
g186
F7
ssS'PRASCSi'
p797
(dp798
S'b2476'
p799
F1
ssS'ACOAD6f_reverse'
p800
(dp801
g186
F7
ssS'NDPK2'
p802
(dp803
S'b2518'
p804
F6
sg353
F8
ssS'NDPK3'
p805
(dp806
g804
F6
sg353
F8
ssS'NDPK1'
p807
(dp808
g804
F6
sg353
F8
ssS'NDPK6'
p809
(dp810
g804
F6
sg353
F8
ssS'NDPK4'
p811
(dp812
g804
F6
sg353
F8
ssS'NDPK5'
p813
(dp814
g804
F6
sg353
F8
ssS'MCOATA'
p815
(dp816
g727
F7
sS'b1092'
p817
F1
ssS'HPPK2'
p818
(dp819
S'b0142'
p820
F1
ssS'ACACT1r'
p821
(dp822
S'b2224'
p823
F1
sg31
F7
sg32
F7
ssS'DTMPK'
p824
(dp825
S'b1098'
p826
F1
ssS'FACOAE120'
p827
(dp828
S'b0452'
p829
F3
ssS'AACPS4'
p830
(dp831
g727
F7
sS'b2836'
p832
F3
ssS'AACPS7'
p833
(dp834
g727
F7
sg832
F3
ssS'MGSA'
p835
(dp836
S'b0963'
p837
F1
ssS'BTS5'
p838
(dp839
S'b0775'
p840
F1
ssS'AACPS3'
p841
(dp842
g727
F7
sg832
F3
ssS'NI2tex'
p843
(dp844
g89
F26
sg90
F26
sg92
F26
sg91
F26
ssS'GALKr'
p845
(dp846
S'b2045'
p847
F1
sS'b0757'
p848
F1
ssS'ALLTAMH'
p849
(dp850
S'b0516'
p851
F1
ssS'SHCHD2'
p852
(dp853
g583
F3
ssS'CITL'
p854
(dp855
S'b0616'
p856
F1
sS'b0617'
p857
F1
sS'b0614'
p858
F1
sS'b0615'
p859
F1
ssS'QUIN2tex_reverse'
p860
(dp861
g89
F26
sg90
F26
sg92
F26
sg91
F26
ssS'FORtppi'
p862
(dp863
S'b0904'
p864
F1
sS'b2492'
p865
F1
ssS'G3PAT160'
p866
(dp867
g727
F7
sS'b4041'
p868
F2
ssS'G3PAT161'
p869
(dp870
g727
F7
sg868
F2
ssS'MECDPDH5'
p871
(dp872
g60
F5
sS'b2515'
p873
F1
sg61
F5
ssS'EX_anhgm_e'
p874
(dp875
sS'ACCOAC'
p876
(dp877
S'b0185'
p878
F1
sS'b3256'
p879
F1
sS'b3255'
p880
F1
sS'b2316'
p881
F1
ssS'MLDCP3App'
p882
(dp883
sS'MOAT2'
p884
(dp885
S'b3633'
p886
F2
ssS'EX_so4_e_reverse'
p887
(dp888
sS'UPPDC1'
p889
(dp890
S'b3997'
p891
F1
ssS'AMPMS2'
p892
(dp893
S'b3994'
p894
F1
ssS'Htex_reverse'
p895
(dp896
g89
F26
sg90
F26
sg91
F26
sg92
F26
ssS'UDCPDPS'
p897
(dp898
S'b0174'
p899
F1
ssS'DHQTi'
p900
(dp901
S'b1693'
p902
F1
ssS'PERD'
p903
(dp904
S'b2320'
p905
F1
ssS'HSK'
p906
(dp907
S'b0003'
p908
F1
ssS'IPDPS'
p909
(dp910
S'b0029'
p911
F2
ssS'EX_co2_e'
p912
(dp913
sS'RBFSb'
p914
(dp915
S'b1662'
p916
F1
ssS'SULRi'
p917
(dp918
S'b2763'
p919
F1
sS'b2764'
p920
F1
ssS'RBFSa'
p921
(dp922
S'b0415'
p923
F1
ssS'HSTPT'
p924
(dp925
S'b2021'
p926
F1
ssS'THRS'
p927
(dp928
S'b0004'
p929
F1
ssS'CTECOAI7_reverse'
p930
(dp931
g276
F15
ssS'GAPD'
p932
(dp933
g86
F2
ssS'QULNS'
p934
(dp935
S'b0750'
p936
F1
ssS'EPMEACPR'
p937
(dp938
S'b1288'
p939
F2
ssS'ASNS2'
p940
(dp941
S'b3744'
p942
F1
ssS'ATPPRT'
p943
(dp944
S'b2019'
p945
F1
ssS'EX_cu2_e_reverse'
p946
(dp947
sS'CU2tex'
p948
(dp949
g89
F26
sg90
F26
sg91
F26
sg92
F26
ssS'Kt2pp'
p950
(dp951
S'b1291'
p952
F1
sS'b1250'
p953
F1
sS'b1363'
p954
F1
sS'b3290'
p955
F1
sS'b3747'
p956
F1
sS'b3849'
p957
F1
ssS'EX_cobalt2_e_reverse'
p958
(dp959
sS'EGMEACPR'
p960
(dp961
g939
F2
ssS'THRD_L'
p962
(dp963
S'b3772'
p964
F1
sS'b3117'
p965
F1
ssS'RNTR3c2'
p966
(dp967
g57
F2
sg58
F3
sg59
F2
sg60
F5
sg61
F5
ssS'DHQS'
p968
(dp969
S'b3389'
p970
F1
ssS'ACGS'
p971
(dp972
S'b2818'
p973
F1
ssS'XYLI2'
p974
(dp975
S'b3565'
p976
F1
ssS'OHPBAT'
p977
(dp978
S'b0907'
p979
F2
ssS'DM_AMOB'
p980
(dp981
sS'PRAIi'
p982
(dp983
g673
F2
ssS'ACGK'
p984
(dp985
S'b3959'
p986
F1
ssS'CBMKr'
p987
(dp988
S'b2874'
p989
F1
sS'b0521'
p990
F1
sS'b0323'
p991
F1
ssS'AKGt2rpp_reverse'
p992
(dp993
S'b2587'
p994
F1
ssS'GK1'
p995
(dp996
S'b3648'
p997
F1
ssS'ACACT6r'
p998
(dp999
g31
F7
sg32
F7
ssS'MALS'
p1000
(dp1001
S'b4014'
p1002
F1
sS'b2976'
p1003
F1
ssS'FE2tex'
p1004
(dp1005
g89
F26
sg90
F26
sg91
F26
sg92
F26
ssS'FACOAE161'
p1006
(dp1007
g829
F3
ssS'FACOAE160'
p1008
(dp1009
g829
F3
ssS'CU2tpp'
p1010
(dp1011
g54
F5
ssS'GRTT'
p1012
(dp1013
S'b0421'
p1014
F2
ssS'UMPK'
p1015
(dp1016
S'b0910'
p1017
F2
sS'b0171'
p1018
F1
ssS'UGLYCH'
p1019
(dp1020
S'b0505'
p1021
F1
ssS'GCALDD'
p1022
(dp1023
S'b1415'
p1024
F1
ssS'ECOAH6'
p1025
(dp1026
g276
F15
sg277
F14
ssS'ECOAH7'
p1027
(dp1028
g276
F15
sg277
F14
ssS'ECOAH4'
p1029
(dp1030
g276
F15
sg277
F14
ssS'ECOAH5'
p1031
(dp1032
g276
F15
sg277
F14
ssS'ECOAH2'
p1033
(dp1034
g276
F15
sg277
F14
ssS'DMPPS'
p1035
(dp1036
g911
F2
ssS'ECOAH1'
p1037
(dp1038
g276
F15
sg277
F14
ssS'ANPRT'
p1039
(dp1040
S'b1263'
p1041
F2
ssS'ANS'
p1042
(dp1043
S'b1264'
p1044
F1
sg1041
F2
ssS'ORPT_reverse'
p1045
(dp1046
S'b3642'
p1047
F1
ssS'NADK'
p1048
(dp1049
S'b2615'
p1050
F1
ssS'PNTK'
p1051
(dp1052
S'b3974'
p1053
F1
ssS'UAGCVT'
p1054
(dp1055
S'b3189'
p1056
F1
ssS'MTHFC_reverse'
p1057
(dp1058
S'b0529'
p1059
F2
ssS'CAt6pp_reverse'
p1060
(dp1061
S'b3196'
p1062
F1
ssS'A5PISO'
p1063
(dp1064
S'b3197'
p1065
F1
sS'b2708'
p1066
F1
ssS'ARGSL'
p1067
(dp1068
S'b3960'
p1069
F1
ssS'CTPS2'
p1070
(dp1071
S'b2780'
p1072
F1
ssS'THRAi'
p1073
(dp1074
S'b0870'
p1075
F1
sS'b2551'
p1076
F1
ssS'TYRTA_reverse'
p1077
(dp1078
g51
F3
sg50
F3
ssS'TALA'
p1079
(dp1080
S'b2464'
p1081
F1
sS'b0008'
p1082
F1
ssS'G3PT'
p1083
(dp1084
S'b0822'
p1085
F1
ssS'UAMAS'
p1086
(dp1087
S'b0091'
p1088
F1
ssS'ARGSS'
p1089
(dp1090
S'b3172'
p1091
F1
ssS'HSDy_reverse'
p1092
(dp1093
g237
F2
sg238
F2
ssS'PPCDC'
p1094
(dp1095
g102
F2
ssS'NADH16pp'
p1096
(dp1097
g776
F2
sg777
F2
sg778
F2
sg785
F2
sg780
F2
sg781
F2
sg782
F2
sg783
F2
sg784
F2
sg786
F2
sg779
F2
sg787
F2
sg788
F2
ssS'HSST'
p1098
(dp1099
S'b4013'
p1100
F1
ssS'3OAR140'
p1101
(dp1102
g483
F3
ssS'AMAOTr'
p1103
(dp1104
S'b0774'
p1105
F1
ssS'QUIN2tpp_reverse'
p1106
(dp1107
sS'CS'
p1108
(dp1109
S'b0720'
p1110
F1
ssS'UGMDDS'
p1111
(dp1112
S'b0086'
p1113
F1
ssS'DHORTS_reverse'
p1114
(dp1115
S'b1062'
p1116
F1
ssS'PTAr_reverse'
p1117
(dp1118
S'b2458'
p1119
F1
sS'b2297'
p1120
F1
ssS'SO4t2pp'
p1121
(dp1122
S'b1206'
p1123
F1
ssS'PMPK'
p1124
(dp1125
S'b2103'
p1126
F1
ssS'CPPPGO2'
p1127
(dp1128
S'b3867'
p1129
F1
ssS'ASPO5'
p1130
(dp1131
S'b2574'
p1132
F1
ssS'TDSK'
p1133
(dp1134
S'b0915'
p1135
F1
ssS'TMPK'
p1136
(dp1137
S'b0417'
p1138
F1
ssS'EX_ni2_e_reverse'
p1139
(dp1140
sS'ECOAH3'
p1141
(dp1142
g276
F15
sg277
F14
ssS'CPMPS'
p1143
(dp1144
S'b0781'
p1145
F1
sS'b0783'
p1146
F1
ssS'MDH3'
p1147
(dp1148
S'b2210'
p1149
F1
ssS'GND'
p1150
(dp1151
S'b2029'
p1152
F1
ssS'ILETA_reverse'
p1153
(dp1154
g49
F4
ssS'ACACT2r'
p1155
(dp1156
g31
F7
sg32
F7
ssS'PPC'
p1157
(dp1158
S'b3956'
p1159
F1
ssS'ACOAD5f_reverse'
p1160
(dp1161
g186
F7
ssS'PPS'
p1162
(dp1163
S'b1702'
p1164
F1
ssS'FORtex_reverse'
p1165
(dp1166
g89
F26
sg90
F26
sg91
F26
sg92
F26
ssS'PRAGSr'
p1167
(dp1168
S'b4005'
p1169
F1
ssS'IPPS'
p1170
(dp1171
S'b0074'
p1172
F1
ssS'EX_quin_e'
p1173
(dp1174
sS'ALAALAr'
p1175
(dp1176
S'b0092'
p1177
F1
sS'b0381'
p1178
F1
ssS'EX_fe2_e_reverse'
p1179
(dp1180
sS'ACALD_reverse'
p1181
(dp1182
S'b0351'
p1183
F1
sg628
F2
ssS'BPNT'
p1184
(dp1185
S'b4214'
p1186
F1
ssS'MMCD'
p1187
(dp1188
S'b2919'
p1189
F1
ssS'EX_ca2_e_reverse'
p1190
(dp1191
sS'Zn2tex'
p1192
(dp1193
g89
F26
sg90
F26
sg91
F26
sg92
F26
ssS'CA2tex'
p1194
(dp1195
g89
F26
sg90
F26
sg92
F26
sg91
F26
ssS'DASYN160'
p1196
(dp1197
S'b0175'
p1198
F2
ssS'PSERT'
p1199
(dp1200
g979
F2
ssS'GLNS'
p1201
(dp1202
S'b3870'
p1203
F1
sS'b1297'
p1204
F1
ssS'AICART'
p1205
(dp1206
S'b4006'
p1207
F2
ssS'THZPSN3'
p1208
(dp1209
S'b4407'
p1210
F1
sS'b3990'
p1211
F1
sg70
F6
sS'b0423'
p1212
F1
sS'b3992'
p1213
F1
ssS'LPADSS'
p1214
(dp1215
S'b0182'
p1216
F1
ssS'URIC'
p1217
(dp1218
sS'ALLTN'
p1219
(dp1220
S'b0512'
p1221
F1
ssS'NNDPR'
p1222
(dp1223
S'b0109'
p1224
F1
ssS'ALAALAabcpp'
p1225
(dp1226
S'b3543'
p1227
F1
sS'b3542'
p1228
F1
sS'b3541'
p1229
F1
sS'b3540'
p1230
F1
sS'b3544'
p1231
F1
sS'b1484'
p1232
F1
sS'b1485'
p1233
F1
sS'b1486'
p1234
F1
sS'b1487'
p1235
F1
sS'b1483'
p1236
F1
ssS'RPE'
p1237
(dp1238
S'b4301'
p1239
F1
sS'b3386'
p1240
F1
ssS'THIORDXi'
p1241
(dp1242
S'b1710'
p1243
F1
sg177
F5
sS'b2480'
p1244
F1
sg178
F5
ssS'RBFK'
p1245
(dp1246
g590
F2
ssS'OPHHX'
p1247
(dp1248
S'b3835'
p1249
F1
ssS'SUCDi'
p1250
(dp1251
S'b0722'
p1252
F1
sS'b0723'
p1253
F1
sS'b0721'
p1254
F1
sS'b0724'
p1255
F1
ssS'PTPATi'
p1256
(dp1257
S'b3634'
p1258
F1
ssS'PRFGS'
p1259
(dp1260
S'b2557'
p1261
F1
ssS'MG2tex'
p1262
(dp1263
g89
F26
sg90
F26
sg91
F26
sg92
F26
ssS'AHCYSNS'
p1264
(dp1265
g452
F2
ssS'DASYN161'
p1266
(dp1267
g1198
F2
ssS'EX_h2o_e'
p1268
(dp1269
sS'NADS1'
p1270
(dp1271
S'b1740'
p1272
F1
ssS'AGM3PApp'
p1273
(dp1274
S'b2435'
p1275
F1
sS'b4169'
p1276
F1
sS'b2817'
p1277
F1
ssS'TKT2'
p1278
(dp1279
S'b2465'
p1280
F2
sS'b2935'
p1281
F2
ssS'TKT1'
p1282
(dp1283
g1280
F2
sg1281
F2
ssS'GLUDy_reverse'
p1284
(dp1285
S'b1761'
p1286
F1
ssS'EX_k_e_reverse'
p1287
(dp1288
sS'IMPC_reverse'
p1289
(dp1290
g1207
F2
ssS'RNDR4'
p1291
(dp1292
S'b2234'
p1293
F2
sS'b2235'
p1294
F2
sg177
F5
sg178
F5
ssS'RNDR2'
p1295
(dp1296
g1293
F2
sg1294
F2
sg177
F5
sg178
F5
ssS'METS'
p1297
(dp1298
S'b3829'
p1299
F1
ssS'KDOCT2'
p1300
(dp1301
S'b0918'
p1302
F1
ssS'SERAT'
p1303
(dp1304
S'b3607'
p1305
F1
ssS'K2L4Aabcpp'
p1306
(dp1307
g155
F3
ssS'NH4tex'
p1308
(dp1309
g89
F26
sg90
F26
sg91
F26
sg92
F26
ssS'POR5_reverse'
p1310
(dp1311
S'b1378'
p1312
F1
sg60
F5
sg61
F5
ssS'CHRPL'
p1313
(dp1314
S'b4039'
p1315
F1
ssS'PGMT'
p1316
(dp1317
S'b2690'
p1318
F1
sS'b0688'
p1319
F1
ssS'ICL'
p1320
(dp1321
S'b4015'
p1322
F1
ssS'GLYCDx'
p1323
(dp1324
g121
F2
ssS'GLU5K'
p1325
(dp1326
S'b0242'
p1327
F1
ssS'SHKK'
p1328
(dp1329
S'b3390'
p1330
F1
sS'b0388'
p1331
F1
ssS'GTPCI'
p1332
(dp1333
S'b2153'
p1334
F1
ssS'MLTG5'
p1335
(dp1336
S'b0403'
p1337
F1
ssS'ADNK1'
p1338
(dp1339
g353
F8
ssS'U23GAAT'
p1340
(dp1341
S'b0179'
p1342
F1
ssS'HXAND'
p1343
(dp1344
g543
F2
sg544
F2
sg545
F2
ssS'PAPPT3'
p1345
(dp1346
S'b0087'
p1347
F1
ssS'CHORM'
p1348
(dp1349
g347
F2
sg158
F2
ssS'Ktex'
p1350
(dp1351
g89
F26
sg90
F26
sg92
F26
sg91
F26
ssS'DHAPT'
p1352
(dp1353
S'b2416'
p1354
F1
sS'b1198'
p1355
F1
sS'b2415'
p1356
F1
sS'b1199'
p1357
F1
sS'b1200'
p1358
F1
ssS'MCTP1Bpp'
p1359
(dp1360
g632
F3
sg633
F3
ssS'FE3abcpp'
p1361
(dp1362
sS'HCO3E'
p1363
(dp1364
S'b0126'
p1365
F1
sS'b0339'
p1366
F1
ssS'DM_5DRIB'
p1367
(dp1368
sS'SHK3Dr'
p1369
(dp1370
S'b3281'
p1371
F1
sg227
F2
ssS'CYTK1'
p1372
(dp1373
g1017
F2
ssS'PSD160'
p1374
(dp1375
S'b4160'
p1376
F2
ssS'PSD161'
p1377
(dp1378
g1376
F2
ssS'ALAR'
p1379
(dp1380
S'b1190'
p1381
F1
sS'b4053'
p1382
F1
ssS'EX_zn2_e_reverse'
p1383
(dp1384
sS'UHGADA'
p1385
(dp1386
S'b0096'
p1387
F1
ssS'PItex'
p1388
(dp1389
g89
F26
sg90
F26
sg92
F26
sg91
F26
ssS'GLUDC'
p1390
(dp1391
S'b1493'
p1392
F1
sS'b3517'
p1393
F1
ssS'DMATT'
p1394
(dp1395
g1014
F2
ssS'MOCOS'
p1396
(dp1397
g28
F2
ssS'FLDR2'
p1398
(dp1399
g58
F3
sg60
F5
sg61
F5
ssS'F6PA'
p1400
(dp1401
S'b3946'
p1402
F1
sS'b0825'
p1403
F1
ssS'UM3PL'
p1404
(dp1405
S'b4233'
p1406
F1
ssS'ICDHyr'
p1407
(dp1408
S'b1136'
p1409
F1
ssS'AGPR_reverse'
p1410
(dp1411
S'b3958'
p1412
F1
ssS'MOBDtex'
p1413
(dp1414
g89
F26
sg90
F26
sg91
F26
sg92
F26
ssS'ADD'
p1415
(dp1416
S'b3665'
p1417
F1
ssS'ACACT7r'
p1418
(dp1419
g31
F7
sg32
F7
ssS'MTHFD_reverse'
p1420
(dp1421
g1059
F2
ssS'TRPS1'
p1422
(dp1423
S'b1260'
p1424
F1
sS'b1261'
p1425
F1
ssS'COBALT2tpp'
p1426
(dp1427
g54
F5
sg738
F2
ssS'OPHBDC'
p1428
(dp1429
S'b2311'
p1430
F1
sS'b3843'
p1431
F1
ssS'FBA'
p1432
(dp1433
S'b2925'
p1434
F1
sS'b1773'
p1435
F1
sS'b2097'
p1436
F1
ssS'K2L4Aabctex'
p1437
(dp1438
S'b3200'
p1439
F1
sS'b4262'
p1440
F1
sS'b4261'
p1441
F1
sS'b3199'
p1442
F1
sS'b3201'
p1443
F1
ssS'OMPDC'
p1444
(dp1445
S'b1281'
p1446
F1
ssS'MOAT'
p1447
(dp1448
g886
F2
ssS'PFK'
p1449
(dp1450
S'b3916'
p1451
F1
sS'b1723'
p1452
F1
ssS'CYSTL'
p1453
(dp1454
S'b3008'
p1455
F1
sS'b1622'
p1456
F1
ssS'GTPCII2'
p1457
(dp1458
S'b1277'
p1459
F1
ssS'UAGDP'
p1460
(dp1461
g344
F2
ssS'PDX5POi'
p1462
(dp1463
S'b1638'
p1464
F1
ssS'EX_nh4_e_reverse'
p1465
(dp1466
sS'ALAt4pp'
p1467
(dp1468
S'b0007'
p1469
F1
ssS'ACOAD1f_reverse'
p1470
(dp1471
g186
F7
ssS'ANHGMtex_reverse'
p1472
(dp1473
g89
F26
sg90
F26
sg91
F26
sg92
F26
ssS'MOBDabcpp'
p1474
(dp1475
S'b2423'
p1476
F1
sS'b2422'
p1477
F1
sS'b0764'
p1478
F1
sS'b0765'
p1479
F1
sS'b0763'
p1480
F1
sS'b2425'
p1481
F1
sS'b2424'
p1482
F1
sS'b3917'
p1483
F1
ssS'ADCL'
p1484
(dp1485
S'b1096'
p1486
F1
ssS'DPCOAK'
p1487
(dp1488
S'b0103'
p1489
F1
ssS'METAT'
p1490
(dp1491
S'b2942'
p1492
F1
ssS'ADCS'
p1493
(dp1494
S'b3360'
p1495
F1
sS'b1812'
p1496
F1
ssS'PPCK'
p1497
(dp1498
S'b3403'
p1499
F1
ssS'COBALT2tex'
p1500
(dp1501
g89
F26
sg90
F26
sg91
F26
sg92
F26
ssS'PFL'
p1502
(dp1503
S'b3114'
p1504
F1
sS'b3951'
p1505
F1
sS'b3952'
p1506
F1
sS'b0902'
p1507
F1
sS'b0903'
p1508
F1
sS'b2579'
p1509
F1
ssS'GF6PTA'
p1510
(dp1511
S'b3729'
p1512
F1
ssS'ADSL1r'
p1513
(dp1514
g161
F2
ssS'CDPMEK'
p1515
(dp1516
S'b1208'
p1517
F1
ssS'EX_mn2_e_reverse'
p1518
(dp1519
ssS'GLYC_BATCH_mu=0.47_S'
p1520
(dp1521
g4
(dp1522
g6
F1
ssg9
(dp1523
g11
F1
ssg12
(dp1524
g14
F1
ssg18
(dp1525
g20
F1
sg21
F1
sg22
F1
ssg23
(dp1526
g25
F1
ssg26
(dp1527
g28
F2
ssg29
(dp1528
g31
F7
sg32
F7
ssS'GLYCLTt2rpp_reverse'
p1529
(dp1530
S'b2975'
p1531
F1
sS'b3603'
p1532
F1
ssg33
(dp1533
g35
F1
ssg36
(dp1534
g38
F1
ssg39
(dp1535
sg41
(dp1536
g43
F1
ssg44
(dp1537
g46
F1
ssg47
(dp1538
g49
F4
sg50
F3
sg51
F3
ssg55
(dp1539
g57
F1
sg58
F2
sg59
F1
sg60
F4
sg61
F4
ssg62
(dp1540
sg64
(dp1541
g66
F1
ssg67
(dp1542
g69
F2
sg70
F6
ssg71
(dp1543
g31
F7
sg32
F7
ssg77
(dp1544
g79
F1
ssg80
(dp1545
g82
F1
ssg83
(dp1546
g85
F1
sg86
F2
ssS'SUCOAS_reverse'
p1547
(dp1548
g362
F1
sg363
F1
ssg93
(dp1549
g95
F1
sg96
F1
sg97
F1
ssg98
(dp1550
sg100
(dp1551
g102
F2
ssg103
(dp1552
g105
F2
sg106
F2
sg107
F2
sg108
F2
ssS'GLYCTO3'
p1553
(dp1554
g646
F1
sg647
F1
sg648
F1
ssg112
(dp1555
g114
F1
ssg115
(dp1556
g117
F1
sg118
F2
ssg122
(dp1557
sg124
(dp1558
g89
F23
sg90
F23
sg92
F23
sg91
F23
ssg126
(dp1559
sg128
(dp1560
sg133
(dp1561
g111
F2
ssg138
(dp1562
g140
F1
sg141
F1
sg142
F1
sg143
F1
ssg144
(dp1563
g146
F1
sg147
F1
ssg153
(dp1564
g155
F3
ssg156
(dp1565
g158
F2
ssg159
(dp1566
g161
F2
ssg162
(dp1567
sg167
(dp1568
g169
F1
ssg170
(dp1569
g105
F2
sg106
F2
sg107
F2
sg108
F2
ssg172
(dp1570
g174
F2
ssS'DRPA'
p1571
(dp1572
S'b4381'
p1573
F1
ssg175
(dp1574
g177
F5
sg178
F5
sg179
F1
ssg184
(dp1575
g186
F7
ssg187
(dp1576
g189
F1
ssg190
(dp1577
g192
F1
sg193
F1
ssg194
(dp1578
g49
F4
sg50
F3
ssg196
(dp1579
g198
F1
sg199
F1
ssg200
(dp1580
sg636
(dp1581
sg202
(dp1582
g204
F1
ssg205
(dp1583
g207
F1
sg208
F1
ssg209
(dp1584
g155
F3
ssS'GSNK'
p1585
(dp1586
S'b0477'
p1587
F1
ssg213
(dp1588
g215
F1
ssg216
(dp1589
g218
F1
ssg219
(dp1590
g221
F1
ssg222
(dp1591
g224
F1
ssg225
(dp1592
g227
F2
ssg1369
(dp1593
g1371
F1
sg227
F2
ssg231
(dp1594
g233
F1
ssg234
(dp1595
g236
F1
sg237
F2
sg238
F2
ssg239
(dp1596
g241
F1
ssg246
(dp1597
g248
F2
sg249
F2
ssg1457
(dp1598
g1459
F1
ssg254
(dp1599
g256
F1
ssg257
(dp1600
g259
F1
sg260
F1
ssg261
(dp1601
g248
F2
sg249
F2
ssg263
(dp1602
g265
F1
ssg266
(dp1603
g268
F1
sg269
F1
sg270
F1
ssg271
(dp1604
g273
F1
ssg1422
(dp1605
g1424
F1
sg1425
F1
ssS'FBA_reverse'
p1606
(dp1607
g1434
F2
sg1435
F1
sg1436
F1
ssg281
(dp1608
g280
F2
ssg283
(dp1609
g276
F15
sg277
F14
ssg285
(dp1610
g287
F1
ssg73
(dp1611
g75
F1
sg76
F1
ssg291
(dp1612
g89
F23
sg90
F23
sg91
F23
sg92
F23
ssg293
(dp1613
g295
F1
ssg296
(dp1614
g298
F1
ssS'GTHOr'
p1615
(dp1616
S'b3500'
p1617
F1
ssg302
(dp1618
g304
F1
ssg305
(dp1619
g307
F1
ssg1250
(dp1620
g1252
F1
sg1253
F1
sg1254
F1
sg1255
F1
ssg308
(dp1621
g310
F1
sg311
F3
ssg312
(dp1622
g311
F3
ssg242
(dp1623
g244
F1
sg245
F1
ssg322
(dp1624
g324
F1
ssg325
(dp1625
g327
F1
sg328
F1
sg174
F2
ssg329
(dp1626
g49
F4
ssg331
(dp1627
g333
F1
ssg334
(dp1628
sg339
(dp1629
g341
F2
ssg342
(dp1630
g344
F2
ssg345
(dp1631
g347
F2
ssg348
(dp1632
g350
F1
ssg351
(dp1633
g353
F9
ssg481
(dp1634
g483
F3
ssg357
(dp1635
g359
F1
ssg364
(dp1636
g366
F1
ssg367
(dp1637
g369
F1
ssg370
(dp1638
g54
F4
ssS'PUNP3_reverse'
p1639
(dp1640
S'b2407'
p1641
F2
sg685
F3
ssg937
(dp1642
g939
F2
ssg375
(dp1643
g377
F1
ssg378
(dp1644
g380
F1
ssg381
(dp1645
g383
F1
ssg384
(dp1646
g386
F1
sg387
F1
ssg388
(dp1647
g186
F7
ssg390
(dp1648
g392
F1
ssg393
(dp1649
sg943
(dp1650
g945
F1
ssg400
(dp1651
g402
F1
sg403
F2
ssg404
(dp1652
g406
F1
ssg977
(dp1653
g979
F2
ssg410
(dp1654
g412
F1
ssg413
(dp1655
g415
F1
sg416
F1
ssg417
(dp1656
g419
F2
ssg420
(dp1657
g70
F6
sg422
F2
sg423
F6
ssg424
(dp1658
g426
F1
ssg427
(dp1659
g429
F1
sg430
F1
ssg431
(dp1660
g433
F1
sg434
F1
ssg435
(dp1661
g437
F1
ssg441
(dp1662
g419
F2
ssg443
(dp1663
g445
F2
sg446
F2
ssg447
(dp1664
g449
F1
sg177
F5
sg178
F5
ssg450
(dp1665
g452
F2
ssg453
(dp1666
g445
F2
sg446
F2
ssg455
(dp1667
g457
F1
ssg458
(dp1668
g460
F1
ssg461
(dp1669
g463
F1
ssg464
(dp1670
g466
F1
ssg467
(dp1671
g89
F23
sg90
F23
sg91
F23
sg92
F23
ssg469
(dp1672
g471
F1
ssg472
(dp1673
g474
F1
ssg475
(dp1674
g477
F1
ssg478
(dp1675
g480
F1
ssS'EX_pro_L_e'
p1676
(dp1677
sg354
(dp1678
g356
F1
ssg484
(dp1679
g486
F1
ssg487
(dp1680
g489
F1
ssg490
(dp1681
g166
F2
sg492
F2
ssg493
(dp1682
g166
F2
sg492
F2
ssg495
(dp1683
g497
F1
ssg500
(dp1684
g502
F1
ssg503
(dp1685
g505
F1
ssg506
(dp1686
g508
F1
ssg509
(dp1687
g511
F1
sg512
F2
ssg513
(dp1688
g515
F2
ssg516
(dp1689
g515
F2
ssg518
(dp1690
g520
F1
sg521
F1
ssg522
(dp1691
g524
F1
sg525
F1
ssg526
(dp1692
g89
F23
sg90
F23
sg91
F23
sg92
F23
ssg528
(dp1693
g530
F1
sg531
F1
sg532
F1
sg533
F1
sg534
F1
sg535
F1
sg536
F1
sg537
F1
sg538
F1
ssg541
(dp1694
g543
F2
sg544
F2
sg545
F2
ssg546
(dp1695
g89
F23
sg90
F23
sg92
F23
sg91
F23
ssg548
(dp1696
g550
F2
ssg551
(dp1697
g550
F2
ssg553
(dp1698
g555
F1
ssg556
(dp1699
g558
F1
ssg561
(dp1700
g563
F1
ssg564
(dp1701
g566
F1
sg567
F1
sg568
F1
ssg569
(dp1702
g571
F1
ssg572
(dp1703
g574
F1
ssg575
(dp1704
g89
F23
sg90
F23
sg92
F23
sg91
F23
ssg577
(dp1705
g579
F1
ssg580
(dp1706
g582
F1
sg583
F3
ssg584
(dp1707
g311
F3
ssg586
(dp1708
g54
F4
ssg588
(dp1709
g590
F2
ssg591
(dp1710
g593
F1
ssg594
(dp1711
g186
F7
ssg596
(dp1712
sg252
(dp1713
sg600
(dp1714
g602
F1
ssg603
(dp1715
g276
F15
sg277
F14
ssg605
(dp1716
g276
F15
sg277
F14
ssg274
(dp1717
g276
F15
sg277
F14
ssg614
(dp1718
g616
F1
ssg617
(dp1719
g276
F15
sg277
F14
ssg619
(dp1720
g276
F15
sg277
F14
ssg621
(dp1721
g583
F3
ssg623
(dp1722
g31
F7
sg32
F7
ssg625
(dp1723
g627
F1
sg628
F2
sg629
F1
ssg630
(dp1724
g632
F2
sg633
F2
sg634
F1
sg635
F1
ssg109
(dp1725
g111
F2
ssg397
(dp1726
g399
F1
ssg649
(dp1727
sg651
(dp1728
g653
F1
ssg654
(dp1729
g656
F1
ssg659
(dp1730
g661
F1
ssg662
(dp1731
g664
F1
ssg665
(dp1732
g667
F1
ssg668
(dp1733
g670
F1
ssg671
(dp1734
g673
F2
ssg674
(dp1735
g676
F1
ssg677
(dp1736
g679
F1
sg680
F1
ssg681
(dp1737
sg683
(dp1738
g685
F3
ssg725
(dp1739
g727
F7
sg728
F1
ssg690
(dp1740
g692
F1
ssg696
(dp1741
g69
F2
sg698
F1
ssg699
(dp1742
g701
F1
ssg702
(dp1743
g704
F2
ssg705
(dp1744
g707
F1
sg632
F2
sg633
F2
sg708
F1
ssg709
(dp1745
g711
F1
ssS'GLYCtex'
p1746
(dp1747
g89
F23
sg90
F23
sg92
F23
sg91
F23
ssg712
(dp1748
g704
F2
ssg714
(dp1749
g716
F1
sg717
F1
sg718
F2
ssg719
(dp1750
g721
F1
ssg722
(dp1751
g724
F1
ssg407
(dp1752
g409
F1
ssg732
(dp1753
g70
F6
sg423
F6
ssg734
(dp1754
g423
F6
sg70
F6
sg422
F2
ssg736
(dp1755
g738
F2
ssg739
(dp1756
g741
F2
sg423
F6
ssg742
(dp1757
g744
F1
sg745
F1
ssg746
(dp1758
g51
F3
ssg748
(dp1759
g118
F2
ssg750
(dp1760
g752
F1
sg753
F1
sg754
F1
sg755
F1
ssg756
(dp1761
g741
F2
sg423
F6
ssg758
(dp1762
g423
F6
ssg760
(dp1763
g341
F2
ssg762
(dp1764
g764
F1
ssS'PPPGO'
p1765
(dp1766
g230
F1
ssg765
(dp1767
g512
F2
ssg767
(dp1768
g483
F3
ssg769
(dp1769
sg774
(dp1770
g776
F2
sg777
F2
sg778
F2
sg779
F2
sg780
F2
sg781
F2
sg782
F2
sg783
F2
sg784
F2
sg785
F2
sg786
F2
sg787
F2
sg788
F2
ssg789
(dp1771
sg791
(dp1772
g793
F1
sg794
F1
ssg795
(dp1773
g186
F7
ssg797
(dp1774
g799
F1
ssg800
(dp1775
g186
F7
ssg802
(dp1776
g804
F7
sg353
F9
ssg805
(dp1777
g804
F7
sg353
F9
ssg807
(dp1778
g804
F7
sg353
F9
ssg809
(dp1779
g804
F7
sg353
F9
ssS'NDPK7'
p1780
(dp1781
g804
F7
sg353
F9
ssg811
(dp1782
g804
F7
sg353
F9
ssg813
(dp1783
g804
F7
sg353
F9
ssg815
(dp1784
g727
F7
sg817
F1
ssg818
(dp1785
g820
F1
ssS'G3PD2'
p1786
(dp1787
g731
F1
ssg821
(dp1788
g823
F1
sg31
F7
sg32
F7
ssg824
(dp1789
g826
F1
ssS'G3PD6'
p1790
(dp1791
S'b2243'
p1792
F1
sS'b2242'
p1793
F1
sS'b2241'
p1794
F1
ssg827
(dp1795
g829
F3
ssg830
(dp1796
g727
F7
sg832
F3
ssS'PFK_3'
p1797
(dp1798
g1451
F2
ssg833
(dp1799
g727
F7
sg832
F3
ssg838
(dp1800
g840
F1
ssg841
(dp1801
g727
F7
sg832
F3
ssg843
(dp1802
g89
F23
sg90
F23
sg92
F23
sg91
F23
ssg849
(dp1803
g851
F1
ssg852
(dp1804
g583
F3
ssg860
(dp1805
g89
F23
sg90
F23
sg92
F23
sg91
F23
ssg862
(dp1806
g864
F1
sg865
F1
ssg866
(dp1807
g727
F7
sg868
F2
ssS'GLYK'
p1808
(dp1809
S'b3926'
p1810
F1
ssg871
(dp1811
g60
F4
sg873
F1
sg61
F4
ssg876
(dp1812
g878
F1
sg879
F1
sg880
F1
sg881
F1
ssS'AKGDH'
p1813
(dp1814
g718
F2
sS'b0726'
p1815
F1
sS'b0727'
p1816
F1
ssg884
(dp1817
g886
F2
ssg887
(dp1818
sg889
(dp1819
g891
F1
ssg892
(dp1820
g894
F1
ssg895
(dp1821
g89
F23
sg90
F23
sg91
F23
sg92
F23
ssg897
(dp1822
g899
F1
ssg900
(dp1823
g902
F1
ssg903
(dp1824
g905
F1
ssg906
(dp1825
g908
F1
ssg909
(dp1826
g911
F2
ssg914
(dp1827
g916
F1
ssg917
(dp1828
g919
F1
sg920
F1
ssg921
(dp1829
g923
F1
ssg924
(dp1830
g926
F1
ssg927
(dp1831
g929
F1
ssg930
(dp1832
g276
F15
ssg932
(dp1833
g86
F2
ssg934
(dp1834
g936
F1
ssg372
(dp1835
g374
F1
ssg940
(dp1836
g942
F1
ssS'GHMT2r_reverse'
p1837
(dp1838
g1076
F2
ssg946
(dp1839
sg948
(dp1840
g89
F23
sg90
F23
sg91
F23
sg92
F23
ssS'PROt2rpp_reverse'
p1841
(dp1842
S'b4111'
p1843
F1
ssg950
(dp1844
g952
F1
sg953
F1
sg954
F1
sg955
F1
sg956
F1
sg957
F1
ssg958
(dp1845
sg960
(dp1846
g939
F2
ssg962
(dp1847
g964
F1
sg965
F1
ssg968
(dp1848
g970
F1
ssg971
(dp1849
g973
F1
ssg980
(dp1850
sg982
(dp1851
g673
F2
ssS'F6PA_reverse'
p1852
(dp1853
g1402
F1
sg1403
F1
ssS'PGI_reverse'
p1854
(dp1855
g17
F1
ssg984
(dp1856
g986
F1
ssg987
(dp1857
g989
F1
sg990
F1
sg991
F1
ssS'GLYCLTt4pp'
p1858
(dp1859
S'b4067'
p1860
F1
ssS'FBA3'
p1861
(dp1862
g1434
F2
ssg995
(dp1863
g997
F2
ssg998
(dp1864
g31
F7
sg32
F7
ssg1000
(dp1865
g1002
F1
sg1003
F1
ssg1004
(dp1866
g89
F23
sg90
F23
sg91
F23
sg92
F23
ssg1006
(dp1867
g829
F3
ssg1008
(dp1868
g829
F3
ssg1010
(dp1869
g54
F4
ssg1012
(dp1870
g1014
F2
ssg1015
(dp1871
g1017
F2
sg1018
F1
ssg1019
(dp1872
g1021
F1
ssg1022
(dp1873
g1024
F1
ssg1025
(dp1874
g276
F15
sg277
F14
ssg1027
(dp1875
g276
F15
sg277
F14
ssg1029
(dp1876
g276
F15
sg277
F14
ssg1031
(dp1877
g276
F15
sg277
F14
ssg1033
(dp1878
g276
F15
sg277
F14
ssg1035
(dp1879
g911
F2
ssg1037
(dp1880
g276
F15
sg277
F14
ssg1039
(dp1881
g1041
F2
ssg1042
(dp1882
g1044
F1
sg1041
F2
ssg1045
(dp1883
g1047
F1
ssg1048
(dp1884
g1050
F1
ssg1051
(dp1885
g1053
F1
ssg1054
(dp1886
g1056
F1
ssg1057
(dp1887
g1059
F2
ssg1060
(dp1888
g1062
F1
ssg1063
(dp1889
g1065
F1
sg1066
F1
ssg1067
(dp1890
g1069
F1
ssg1070
(dp1891
g1072
F1
ssg1073
(dp1892
g1075
F1
sg1076
F2
ssg1077
(dp1893
g51
F3
sg50
F3
ssg1079
(dp1894
g1081
F1
sg1082
F1
ssg1083
(dp1895
g1085
F1
ssg1086
(dp1896
g1088
F1
ssg1089
(dp1897
g1091
F1
ssg1092
(dp1898
g237
F2
sg238
F2
ssg1094
(dp1899
g102
F2
ssg1096
(dp1900
g776
F2
sg777
F2
sg778
F2
sg785
F2
sg780
F2
sg781
F2
sg782
F2
sg783
F2
sg784
F2
sg786
F2
sg779
F2
sg787
F2
sg788
F2
ssg1098
(dp1901
g1100
F1
ssg1101
(dp1902
g483
F3
ssg1103
(dp1903
g1105
F1
ssg1106
(dp1904
sg1108
(dp1905
g1110
F1
ssg1111
(dp1906
g1113
F1
ssS'PUNP4'
p1907
(dp1908
g1641
F2
sg685
F3
ssg1114
(dp1909
g1116
F1
ssg1117
(dp1910
g1119
F1
sg1120
F1
ssg1121
(dp1911
g1123
F1
ssg1124
(dp1912
g1126
F1
ssg1127
(dp1913
g1129
F1
ssg1130
(dp1914
g1132
F1
ssg1133
(dp1915
g1135
F1
ssg1136
(dp1916
g1138
F1
ssg1245
(dp1917
g590
F2
ssg1139
(dp1918
sg1141
(dp1919
g276
F15
sg277
F14
ssg1143
(dp1920
g1145
F1
sg1146
F1
ssS'MDH2'
p1921
(dp1922
g1149
F1
ssg1150
(dp1923
g1152
F1
ssg1153
(dp1924
g49
F4
ssg1155
(dp1925
g31
F7
sg32
F7
ssg1157
(dp1926
g1159
F1
ssg1160
(dp1927
g186
F7
ssg1162
(dp1928
g1164
F1
ssg1165
(dp1929
g89
F23
sg90
F23
sg91
F23
sg92
F23
ssg1167
(dp1930
g1169
F1
ssg1170
(dp1931
g1172
F1
ssg1173
(dp1932
sg598
(dp1933
g276
F15
sg277
F14
ssg1175
(dp1934
g1177
F1
sg1178
F1
ssg1179
(dp1935
sg1181
(dp1936
g1183
F1
sg628
F2
ssg1184
(dp1937
g1186
F1
ssg1190
(dp1938
sg1192
(dp1939
g89
F23
sg90
F23
sg91
F23
sg92
F23
ssg1194
(dp1940
g89
F23
sg90
F23
sg92
F23
sg91
F23
ssg1196
(dp1941
g1198
F2
ssg1199
(dp1942
g979
F2
ssg1201
(dp1943
g1203
F1
sg1204
F1
ssg1205
(dp1944
g1207
F2
ssg1208
(dp1945
g1210
F1
sg1211
F1
sg70
F6
sg1212
F1
sg1213
F1
ssg1214
(dp1946
g1216
F1
ssg1217
(dp1947
sg1219
(dp1948
g1221
F1
ssg1222
(dp1949
g1224
F1
ssS'MNt2pp'
p1950
(dp1951
S'b2392'
p1952
F1
ssg1237
(dp1953
g1239
F1
sg1240
F1
ssS'PROtex_reverse'
p1954
(dp1955
g89
F23
sg90
F23
sg92
F23
sg91
F23
ssg1247
(dp1956
g1249
F1
ssS'DGK1_reverse'
p1957
(dp1958
g997
F2
ssg1256
(dp1959
g1258
F1
ssg1259
(dp1960
g1261
F1
ssg1262
(dp1961
g89
F23
sg90
F23
sg91
F23
sg92
F23
ssg1264
(dp1962
g452
F2
ssg1266
(dp1963
g1198
F2
ssg1268
(dp1964
sg1270
(dp1965
g1272
F1
ssg1278
(dp1966
g1280
F2
sg1281
F2
ssg1282
(dp1967
g1280
F2
sg1281
F2
ssg1284
(dp1968
g1286
F1
ssg1287
(dp1969
sg1289
(dp1970
g1207
F2
ssS'PPM2'
p1971
(dp1972
g403
F2
ssg1291
(dp1973
g1293
F3
sg1294
F3
sg177
F5
sg178
F5
ssS'RNDR3'
p1974
(dp1975
g1293
F3
sg1294
F3
sg177
F5
sg178
F5
ssg1295
(dp1976
g1293
F3
sg1294
F3
sg177
F5
sg178
F5
ssg1297
(dp1977
g1299
F1
ssg1300
(dp1978
g1302
F1
ssg1303
(dp1979
g1305
F1
ssg1306
(dp1980
g155
F3
ssg1308
(dp1981
g89
F23
sg90
F23
sg91
F23
sg92
F23
ssg1310
(dp1982
g1312
F1
sg60
F4
sg61
F4
ssg1313
(dp1983
g1315
F1
ssg7
(dp1984
sg1323
(dp1985
g121
F1
ssg1325
(dp1986
g1327
F1
ssg1328
(dp1987
g1330
F1
sg1331
F1
ssg1332
(dp1988
g1334
F1
ssg1338
(dp1989
g353
F9
ssg1340
(dp1990
g1342
F1
ssg1343
(dp1991
g543
F2
sg544
F2
sg545
F2
ssg1345
(dp1992
g1347
F1
ssg1348
(dp1993
g347
F2
sg158
F2
ssg1350
(dp1994
g89
F23
sg90
F23
sg92
F23
sg91
F23
ssg1352
(dp1995
g1354
F1
sg1355
F1
sg1356
F1
sg1357
F1
sg1358
F1
ssg395
(dp1996
g70
F6
ssg1361
(dp1997
sg1363
(dp1998
g1365
F1
sg1366
F1
ssg1367
(dp1999
sg1372
(dp2000
g1017
F2
ssg1374
(dp2001
g1376
F2
ssg1377
(dp2002
g1376
F2
ssg1379
(dp2003
g1381
F1
sg1382
F1
ssg1383
(dp2004
sg1385
(dp2005
g1387
F1
ssg1388
(dp2006
g89
F23
sg90
F23
sg92
F23
sg91
F23
ssg1390
(dp2007
g1392
F1
sg1393
F1
ssg1394
(dp2008
g1014
F2
ssg1396
(dp2009
g28
F2
ssg1398
(dp2010
g58
F2
sg60
F4
sg61
F4
ssg1407
(dp2011
g1409
F1
ssg1410
(dp2012
g1412
F1
ssg1413
(dp2013
g89
F23
sg90
F23
sg91
F23
sg92
F23
ssg1415
(dp2014
g1417
F1
ssg1418
(dp2015
g31
F7
sg32
F7
ssg1420
(dp2016
g1059
F2
ssS'FBP'
p2017
(dp2018
S'b3925'
p2019
F1
sS'b2930'
p2020
F1
sS'b4232'
p2021
F1
ssg1426
(dp2022
g54
F4
sg738
F2
ssg1428
(dp2023
g1430
F1
sg1431
F1
ssg278
(dp2024
g280
F2
ssg1437
(dp2025
g1439
F1
sg1440
F1
sg1441
F1
sg1442
F1
sg1443
F1
ssg1444
(dp2026
g1446
F1
ssg1447
(dp2027
g886
F2
ssg1449
(dp2028
g1451
F2
sg1452
F1
ssg1453
(dp2029
g1455
F1
sg1456
F1
ssS'GTHPi'
p2030
(dp2031
g1243
F1
ssg1460
(dp2032
g344
F2
ssS'CYTBD2pp'
p2033
(dp2034
S'b0979'
p2035
F1
sS'b0978'
p2036
F1
ssg1462
(dp2037
g1464
F1
ssg1465
(dp2038
sg1470
(dp2039
g186
F7
ssS'NTD8'
p2040
(dp2041
S'b2291'
p2042
F1
sS'b2744'
p2043
F1
ssg1474
(dp2044
g1476
F1
sg1477
F1
sg1478
F1
sg1479
F1
sg1480
F1
sg1481
F1
sg1482
F1
sg1483
F1
ssg1484
(dp2045
g1486
F1
ssg1487
(dp2046
g1489
F1
ssg1490
(dp2047
g1492
F1
ssg1493
(dp2048
g1495
F1
sg1496
F1
ssg869
(dp2049
g727
F7
sg868
F2
ssg1500
(dp2050
g89
F23
sg90
F23
sg91
F23
sg92
F23
ssg1502
(dp2051
g1504
F1
sg1505
F1
sg1506
F1
sg1507
F1
sg1508
F1
sg1509
F1
ssg1510
(dp2052
g1512
F1
ssg1513
(dp2053
g161
F2
ssg1515
(dp2054
g1517
F1
ssg1518
(dp2055
ssS'FRU_BATCH_mu=0.65_S'
p2056
(dp2057
g4
(dp2058
g6
F1
ssg7
(dp2059
sg9
(dp2060
g11
F1
ssS'AADDGT'
p2061
(dp2062
S'b4481'
p2063
F1
ssg12
(dp2064
g14
F1
ssg966
(dp2065
g57
F3
sg58
F4
sg59
F3
sg60
F6
sg61
F6
ssg18
(dp2066
g20
F1
sg21
F1
sg22
F1
ssg23
(dp2067
g25
F1
ssS'UDCPPtppi'
p2068
(dp2069
sg26
(dp2070
g28
F2
ssg29
(dp2071
g31
F7
sg32
F7
ssg33
(dp2072
g35
F1
ssg36
(dp2073
g38
F1
ssg39
(dp2074
sg41
(dp2075
g43
F1
ssg44
(dp2076
g46
F1
ssg47
(dp2077
g49
F4
sg50
F3
sg51
F3
ssg52
(dp2078
g54
F5
ssg55
(dp2079
g57
F3
sg58
F4
sg59
F3
sg60
F6
sg61
F6
ssg62
(dp2080
sg64
(dp2081
g66
F1
ssS'FACOAE140'
p2082
(dp2083
g829
F4
ssg67
(dp2084
g69
F2
sg70
F6
ssg71
(dp2085
g31
F7
sg32
F7
ssS'RHAT1'
p2086
(dp2087
S'b3629'
p2088
F1
ssg77
(dp2089
g79
F1
ssg80
(dp2090
g82
F1
ssg83
(dp2091
g85
F1
sg86
F2
ssg1547
(dp2092
g362
F1
sg363
F1
ssg93
(dp2093
g95
F1
sg96
F1
sg97
F1
ssg98
(dp2094
sS'FRUptspp'
p2095
(dp2096
g1354
F3
sS'b2167'
p2097
F1
sg1356
F3
sS'b2169'
p2098
F1
ssg100
(dp2099
g102
F2
ssg103
(dp2100
g105
F2
sg106
F2
sg107
F2
sg108
F2
ssg1340
(dp2101
g1342
F1
ssg109
(dp2102
g111
F2
ssg112
(dp2103
g114
F1
ssg115
(dp2104
g117
F1
sg118
F2
ssg119
(dp2105
g121
F1
ssg122
(dp2106
sg124
(dp2107
g89
F27
sg90
F27
sg92
F27
sg91
F27
ssg126
(dp2108
sS'PTAr'
p2109
(dp2110
g1119
F1
sg1120
F1
ssS'FRUpts2pp'
p2111
(dp2112
S'b1817'
p2113
F1
sg1354
F3
sg1356
F3
sS'b1819'
p2114
F1
sS'b1818'
p2115
F1
ssg128
(dp2116
sg133
(dp2117
g111
F2
ssg138
(dp2118
g140
F1
sg141
F1
sg142
F1
sg143
F1
ssg144
(dp2119
g146
F1
sg147
F1
ssg153
(dp2120
g155
F4
ssg156
(dp2121
g158
F2
ssg159
(dp2122
g161
F2
ssg162
(dp2123
sS'UAG2E'
p2124
(dp2125
S'b3786'
p2126
F1
ssS'GMHEPK'
p2127
(dp2128
S'b3052'
p2129
F2
ssg167
(dp2130
g169
F1
ssg170
(dp2131
g105
F2
sg106
F2
sg107
F2
sg108
F2
ssg172
(dp2132
g174
F2
ssg331
(dp2133
g333
F1
ssg180
(dp2134
g182
F1
sg183
F1
ssg184
(dp2135
g186
F7
ssS'G1PTT'
p2136
(dp2137
S'b2039'
p2138
F1
sS'b3789'
p2139
F1
ssS'GALT1'
p2140
(dp2141
S'b3628'
p2142
F1
ssg187
(dp2143
g189
F1
ssg194
(dp2144
g49
F4
sg50
F3
ssg196
(dp2145
g198
F1
sg199
F1
ssg200
(dp2146
sg202
(dp2147
g204
F1
ssg205
(dp2148
g207
F1
sg208
F1
ssg209
(dp2149
g155
F4
ssg211
(dp2150
sg213
(dp2151
g215
F1
ssg216
(dp2152
g218
F1
ssg219
(dp2153
g221
F1
ssg222
(dp2154
g224
F1
ssg225
(dp2155
g227
F2
ssg228
(dp2156
g230
F1
ssg231
(dp2157
g233
F1
ssg234
(dp2158
g236
F1
sg237
F2
sg238
F2
ssg239
(dp2159
g241
F1
ssg314
(dp2160
g316
F1
sg317
F1
sg318
F1
sg319
F1
sg320
F1
sg321
F1
ssg246
(dp2161
g248
F2
sg249
F2
ssg250
(dp2162
sg1457
(dp2163
g1459
F1
ssg254
(dp2164
g256
F1
ssg257
(dp2165
g259
F1
sg260
F1
ssg261
(dp2166
g248
F2
sg249
F2
ssg263
(dp2167
g265
F1
ssg266
(dp2168
g268
F2
sg269
F2
sg270
F2
ssg271
(dp2169
g273
F1
ssS'ACt2rpp_reverse'
p2170
(dp2171
sg274
(dp2172
g276
F15
sg277
F14
ssg1422
(dp2173
g1424
F1
sg1425
F1
ssg278
(dp2174
g280
F2
ssg281
(dp2175
g280
F2
ssg283
(dp2176
g276
F15
sg277
F14
ssg73
(dp2177
g75
F1
sg76
F1
ssg291
(dp2178
g89
F27
sg90
F27
sg91
F27
sg92
F27
ssg296
(dp2179
g298
F1
ssg1615
(dp2180
g1617
F1
ssS'FRUK'
p2181
(dp2182
S'b2168'
p2183
F1
ssg302
(dp2184
g304
F1
ssg305
(dp2185
g307
F1
ssg308
(dp2186
g310
F1
sg311
F3
ssg312
(dp2187
g311
F3
ssg242
(dp2188
g244
F1
sg245
F1
ssg322
(dp2189
g324
F1
ssg334
(dp2190
sg329
(dp2191
g49
F4
ssS'GLCTR1'
p2192
(dp2193
S'b3631'
p2194
F1
ssS'GLCTR2'
p2195
(dp2196
S'b3627'
p2197
F1
ssS'GLCTR3'
p2198
(dp2199
S'b3626'
p2200
F1
ssS'PGMT_reverse'
p2201
(dp2202
g1318
F1
sg1319
F1
ssg339
(dp2203
g341
F2
ssg342
(dp2204
g344
F2
ssg345
(dp2205
g347
F2
ssg348
(dp2206
g350
F1
ssg351
(dp2207
g353
F7
ssS'HEPT4'
p2208
(dp2209
S'b3623'
p2210
F1
ssS'HEPT2'
p2211
(dp2212
S'b3620'
p2213
F1
ssS'HEPT3'
p2214
(dp2215
S'b3632'
p2216
F1
ssg354
(dp2217
g356
F1
ssS'HEPT1'
p2218
(dp2219
S'b3621'
p2220
F1
ssS'ACKr_reverse'
p2221
(dp2222
g327
F1
sg328
F1
sg174
F2
ssg364
(dp2223
g366
F1
ssg367
(dp2224
g369
F1
ssg370
(dp2225
g54
F5
ssg372
(dp2226
g374
F1
ssg375
(dp2227
g377
F1
ssg378
(dp2228
g380
F1
ssg381
(dp2229
g383
F1
ssS'GMHEPAT'
p2230
(dp2231
g2129
F2
ssg384
(dp2232
g386
F1
sg387
F1
ssg388
(dp2233
g186
F7
ssg390
(dp2234
g392
F1
ssg393
(dp2235
sg395
(dp2236
g70
F6
ssg943
(dp2237
g945
F1
ssS'EX_ac_e'
p2238
(dp2239
sg400
(dp2240
g402
F1
sg403
F1
ssg404
(dp2241
g406
F1
ssg407
(dp2242
g409
F1
ssg410
(dp2243
g412
F1
ssg413
(dp2244
g415
F1
sg416
F1
ssS'UDCPDPpp'
p2245
(dp2246
g270
F2
sg269
F2
sg268
F2
ssg417
(dp2247
g419
F2
ssg420
(dp2248
g70
F6
sg422
F2
sg423
F6
ssg424
(dp2249
g426
F1
ssg427
(dp2250
g429
F1
sg430
F1
ssg431
(dp2251
g433
F1
sg434
F1
ssg435
(dp2252
g437
F1
ssg441
(dp2253
g419
F2
ssg443
(dp2254
g445
F2
sg446
F2
ssg447
(dp2255
g449
F1
sg177
F3
sg178
F3
ssg450
(dp2256
g452
F2
ssg453
(dp2257
g445
F2
sg446
F2
ssg455
(dp2258
g457
F1
ssg458
(dp2259
g460
F1
ssg461
(dp2260
g463
F1
ssg464
(dp2261
g466
F1
ssg467
(dp2262
g89
F27
sg90
F27
sg91
F27
sg92
F27
ssg469
(dp2263
g471
F1
ssg472
(dp2264
g474
F1
ssg475
(dp2265
g477
F1
ssg478
(dp2266
g480
F1
ssg1377
(dp2267
g1376
F2
ssg481
(dp2268
g483
F3
ssg357
(dp2269
g359
F1
ssg484
(dp2270
g486
F1
ssg487
(dp2271
g489
F1
ssg490
(dp2272
g166
F2
sg492
F2
ssg493
(dp2273
g166
F2
sg492
F2
ssg495
(dp2274
g497
F1
ssg498
(dp2275
g89
F27
sg90
F27
sg91
F27
sg92
F27
ssg500
(dp2276
g502
F1
ssg503
(dp2277
g505
F1
ssg506
(dp2278
g508
F1
ssg509
(dp2279
g511
F1
sg512
F2
ssg513
(dp2280
g515
F2
ssg516
(dp2281
g515
F2
ssg518
(dp2282
g520
F1
sg521
F1
ssg522
(dp2283
g524
F1
sg525
F1
ssg526
(dp2284
g89
F27
sg90
F27
sg91
F27
sg92
F27
ssg1338
(dp2285
g353
F7
ssg539
(dp2286
sg541
(dp2287
g543
F2
sg544
F2
sg545
F2
ssg546
(dp2288
g89
F27
sg90
F27
sg92
F27
sg91
F27
ssg548
(dp2289
g550
F2
ssg551
(dp2290
g550
F2
ssg553
(dp2291
g555
F1
ssg556
(dp2292
g558
F1
ssg559
(dp2293
sg561
(dp2294
g563
F1
ssg564
(dp2295
g566
F1
sg567
F1
sg568
F1
ssg569
(dp2296
g571
F1
ssg572
(dp2297
g574
F1
ssS'TDPAGTA'
p2298
(dp2299
S'b3791'
p2300
F1
ssg575
(dp2301
g89
F27
sg90
F27
sg92
F27
sg91
F27
ssS'GLUt4pp'
p2302
(dp2303
S'b3653'
p2304
F1
ssg577
(dp2305
g579
F1
ssg580
(dp2306
g582
F1
sg583
F3
ssg584
(dp2307
g311
F3
ssg586
(dp2308
g54
F5
ssg588
(dp2309
g590
F2
ssg591
(dp2310
g593
F1
ssg594
(dp2311
g186
F7
ssg596
(dp2312
sg598
(dp2313
g276
F15
sg277
F14
ssg600
(dp2314
g602
F1
ssg603
(dp2315
g276
F15
sg277
F14
ssg605
(dp2316
g276
F15
sg277
F14
ssg607
(dp2317
g609
F1
sg610
F1
sg611
F1
sg612
F1
sg613
F1
ssg614
(dp2318
g616
F1
ssg617
(dp2319
g276
F15
sg277
F14
ssg619
(dp2320
g276
F15
sg277
F14
ssg621
(dp2321
g583
F3
ssg623
(dp2322
g31
F7
sg32
F7
ssg625
(dp2323
g627
F1
sg628
F2
sg629
F1
ssg630
(dp2324
g632
F3
sg633
F3
sg634
F1
sg635
F1
ssg636
(dp2325
sS'ECAP3pp'
p2326
(dp2327
S'b3785'
p2328
F3
sS'b3793'
p2329
F3
ssg638
(dp2330
g640
F1
sg641
F1
sg642
F1
sg643
F1
ssg644
(dp2331
g646
F1
sg647
F1
sg648
F1
ssg649
(dp2332
sg651
(dp2333
g653
F1
ssg654
(dp2334
g656
F1
ssg657
(dp2335
sg659
(dp2336
g661
F1
ssS'TDPADGAT'
p2337
(dp2338
S'b3790'
p2339
F1
ssg662
(dp2340
g664
F1
ssg665
(dp2341
g667
F1
ssg668
(dp2342
g670
F1
ssg671
(dp2343
g673
F2
ssg674
(dp2344
g676
F1
ssg677
(dp2345
g679
F1
sg680
F1
ssS'S7PI'
p2346
(dp2347
S'b0222'
p2348
F1
ssg681
(dp2349
sg683
(dp2350
g685
F1
ssS'HEPK2'
p2351
(dp2352
S'b3625'
p2353
F1
ssS'HEPK1'
p2354
(dp2355
S'b3630'
p2356
F1
ssg686
(dp2357
g89
F27
sg90
F27
sg91
F27
sg92
F27
ssg688
(dp2358
g89
F27
sg90
F27
sg92
F27
sg91
F27
ssS'GLUt2rpp_reverse'
p2359
(dp2360
S'b4077'
p2361
F1
ssS'TDPDRE'
p2362
(dp2363
S'b2038'
p2364
F1
ssg690
(dp2365
g692
F1
ssg696
(dp2366
g69
F2
sg698
F1
ssg699
(dp2367
g701
F1
ssg702
(dp2368
g704
F2
ssg705
(dp2369
g707
F1
sg632
F3
sg633
F3
sg708
F1
ssg709
(dp2370
g711
F1
ssg712
(dp2371
g704
F2
ssS'TDPDRR'
p2372
(dp2373
S'b2040'
p2374
F1
ssg714
(dp2375
g716
F1
sg717
F1
sg718
F2
ssg719
(dp2376
g721
F1
ssg722
(dp2377
g724
F1
ssS'GALUi'
p2378
(dp2379
S'b1236'
p2380
F1
ssg729
(dp2381
g731
F1
ssg732
(dp2382
g70
F6
sg423
F6
ssg734
(dp2383
g423
F6
sg70
F6
sg422
F2
ssg736
(dp2384
g738
F2
ssg739
(dp2385
g741
F2
sg423
F6
ssS'COLIPAabcpp'
p2386
(dp2387
g155
F4
ssg746
(dp2388
g51
F3
ssg748
(dp2389
g118
F2
ssg750
(dp2390
g752
F1
sg753
F1
sg754
F1
sg755
F1
ssg756
(dp2391
g741
F2
sg423
F6
ssg758
(dp2392
g423
F6
ssg760
(dp2393
g341
F2
ssg762
(dp2394
g764
F1
ssg765
(dp2395
g512
F2
ssg767
(dp2396
g483
F3
ssg769
(dp2397
sg774
(dp2398
g776
F2
sg777
F2
sg778
F2
sg779
F2
sg780
F2
sg781
F2
sg782
F2
sg783
F2
sg784
F2
sg785
F2
sg786
F2
sg787
F2
sg788
F2
ssg789
(dp2399
sg791
(dp2400
g793
F1
sg794
F1
ssS'ACMAMUT'
p2401
(dp2402
S'b3794'
p2403
F1
ssg795
(dp2404
g186
F7
ssg797
(dp2405
g799
F1
ssg800
(dp2406
g186
F7
ssg802
(dp2407
g804
F5
sg353
F7
ssg805
(dp2408
g804
F5
sg353
F7
ssg807
(dp2409
g804
F5
sg353
F7
ssg175
(dp2410
g177
F3
sg178
F3
sg179
F1
ssg811
(dp2411
g804
F5
sg353
F7
ssg813
(dp2412
g804
F5
sg353
F7
ssg815
(dp2413
g727
F8
sg817
F1
ssg818
(dp2414
g820
F1
ssg821
(dp2415
g823
F1
sg31
F7
sg32
F7
ssg824
(dp2416
g826
F1
ssS'ECAtpp'
p2417
(dp2418
S'b3792'
p2419
F1
ssg827
(dp2420
g829
F4
ssg830
(dp2421
g727
F8
sg832
F4
ssg1797
(dp2422
g1451
F2
ssg833
(dp2423
g727
F8
sg832
F4
ssg835
(dp2424
g837
F1
ssS'AACPS1'
p2425
(dp2426
g727
F8
sg832
F4
ssg838
(dp2427
g840
F1
ssg841
(dp2428
g727
F8
sg832
F4
ssg843
(dp2429
g89
F27
sg90
F27
sg92
F27
sg91
F27
ssg849
(dp2430
g851
F1
ssS'MOAT3C'
p2431
(dp2432
S'b3624'
p2433
F1
ssg852
(dp2434
g583
F3
ssg860
(dp2435
g89
F27
sg90
F27
sg92
F27
sg91
F27
ssg862
(dp2436
g864
F1
sg865
F1
ssg866
(dp2437
g727
F8
sg868
F2
ssg869
(dp2438
g727
F8
sg868
F2
ssg871
(dp2439
g60
F6
sg873
F1
sg61
F6
ssg874
(dp2440
sg876
(dp2441
g878
F1
sg879
F1
sg880
F1
sg881
F1
ssg882
(dp2442
sg1813
(dp2443
g718
F2
sg1815
F1
sg1816
F1
ssg884
(dp2444
g886
F2
ssg887
(dp2445
sg889
(dp2446
g891
F1
ssg892
(dp2447
g894
F1
ssg895
(dp2448
g89
F27
sg90
F27
sg91
F27
sg92
F27
ssg897
(dp2449
g899
F1
ssg900
(dp2450
g902
F1
ssg903
(dp2451
g905
F1
ssg906
(dp2452
g908
F1
ssg909
(dp2453
g911
F2
ssg912
(dp2454
sg914
(dp2455
g916
F1
ssg917
(dp2456
g919
F1
sg920
F1
ssg921
(dp2457
g923
F1
ssg924
(dp2458
g926
F1
ssg927
(dp2459
g929
F1
ssg930
(dp2460
g276
F15
ssg932
(dp2461
g86
F2
ssg934
(dp2462
g936
F1
ssg937
(dp2463
g939
F2
ssg940
(dp2464
g942
F1
ssg1837
(dp2465
g1076
F2
ssg946
(dp2466
sg948
(dp2467
g89
F27
sg90
F27
sg91
F27
sg92
F27
ssg950
(dp2468
g952
F1
sg953
F1
sg954
F1
sg955
F1
sg956
F1
sg957
F1
ssg958
(dp2469
sg960
(dp2470
g939
F2
ssg962
(dp2471
g964
F1
sg965
F1
ssS'ACtex_reverse'
p2472
(dp2473
g89
F27
sg90
F27
sg92
F27
sg91
F27
ssg968
(dp2474
g970
F1
ssg971
(dp2475
g973
F1
ssg977
(dp2476
g979
F2
ssg980
(dp2477
sg982
(dp2478
g673
F2
ssg1854
(dp2479
g17
F1
ssg984
(dp2480
g986
F1
ssg987
(dp2481
g989
F1
sg990
F1
sg991
F1
ssg1861
(dp2482
g1434
F2
ssg992
(dp2483
g994
F1
ssg995
(dp2484
g997
F1
ssg998
(dp2485
g31
F7
sg32
F7
ssg1000
(dp2486
g1002
F1
sg1003
F1
ssS'RNTR4c2'
p2487
(dp2488
g57
F3
sg58
F4
sg59
F3
sg60
F6
sg61
F6
ssg1004
(dp2489
g89
F27
sg90
F27
sg91
F27
sg92
F27
ssg1006
(dp2490
g829
F4
ssg1008
(dp2491
g829
F4
ssg1010
(dp2492
g54
F5
ssg1012
(dp2493
g1014
F2
ssg397
(dp2494
g399
F1
ssg1015
(dp2495
g1017
F2
sg1018
F1
ssg1019
(dp2496
g1021
F1
ssg1022
(dp2497
g1024
F1
ssg1025
(dp2498
g276
F15
sg277
F14
ssg1027
(dp2499
g276
F15
sg277
F14
ssg1029
(dp2500
g276
F15
sg277
F14
ssg1031
(dp2501
g276
F15
sg277
F14
ssg1033
(dp2502
g276
F15
sg277
F14
ssg1035
(dp2503
g911
F2
ssg1037
(dp2504
g276
F15
sg277
F14
ssg1039
(dp2505
g1041
F2
ssg1042
(dp2506
g1044
F1
sg1041
F2
ssg1045
(dp2507
g1047
F1
ssg1048
(dp2508
g1050
F1
ssg1051
(dp2509
g1053
F1
ssg1054
(dp2510
g1056
F1
ssg1057
(dp2511
g1059
F2
ssg1060
(dp2512
g1062
F1
ssg1063
(dp2513
g1065
F1
sg1066
F1
ssg1067
(dp2514
g1069
F1
ssg1070
(dp2515
g1072
F1
ssg1073
(dp2516
g1075
F1
sg1076
F2
ssS'EX_eca4colipa_e'
p2517
(dp2518
sg1077
(dp2519
g51
F3
sg50
F3
ssg1079
(dp2520
g1081
F1
sg1082
F1
ssg1086
(dp2521
g1088
F1
ssg1089
(dp2522
g1091
F1
ssg1092
(dp2523
g237
F2
sg238
F2
ssg1094
(dp2524
g102
F2
ssg1096
(dp2525
g776
F2
sg777
F2
sg778
F2
sg785
F2
sg780
F2
sg781
F2
sg782
F2
sg783
F2
sg784
F2
sg786
F2
sg779
F2
sg787
F2
sg788
F2
ssg1098
(dp2526
g1100
F1
ssg725
(dp2527
g727
F8
sg728
F1
ssg1101
(dp2528
g483
F3
ssg1103
(dp2529
g1105
F1
ssg1106
(dp2530
sg1108
(dp2531
g1110
F1
ssg1111
(dp2532
g1113
F1
ssg1114
(dp2533
g1116
F1
ssS'UACMAMO'
p2534
(dp2535
S'b3787'
p2536
F1
ssg1121
(dp2537
g1123
F1
ssg1124
(dp2538
g1126
F1
ssg1127
(dp2539
g1129
F1
ssg1130
(dp2540
g1132
F1
ssg1133
(dp2541
g1135
F1
ssg1136
(dp2542
g1138
F1
ssg1139
(dp2543
sg1141
(dp2544
g276
F15
sg277
F14
ssg1143
(dp2545
g1145
F1
sg1146
F1
ssg1921
(dp2546
g1149
F1
ssg1150
(dp2547
g1152
F1
ssg1153
(dp2548
g49
F4
ssg1155
(dp2549
g31
F7
sg32
F7
ssg1157
(dp2550
g1159
F1
ssg1160
(dp2551
g186
F7
ssg1162
(dp2552
g1164
F1
ssg1165
(dp2553
g89
F27
sg90
F27
sg91
F27
sg92
F27
ssg1167
(dp2554
g1169
F1
ssg1170
(dp2555
g1172
F1
ssg1173
(dp2556
sg1175
(dp2557
g1177
F1
sg1178
F1
ssg1179
(dp2558
sg1181
(dp2559
g1183
F1
sg628
F2
ssg1184
(dp2560
g1186
F1
ssg1190
(dp2561
sg1192
(dp2562
g89
F27
sg90
F27
sg91
F27
sg92
F27
ssg1194
(dp2563
g89
F27
sg90
F27
sg92
F27
sg91
F27
ssg1196
(dp2564
g1198
F2
ssg1199
(dp2565
g979
F2
ssg1201
(dp2566
g1203
F1
sg1204
F1
ssg1205
(dp2567
g1207
F2
ssg1208
(dp2568
g1210
F1
sg1211
F1
sg70
F6
sg1212
F1
sg1213
F1
ssg1214
(dp2569
g1216
F1
ssg1217
(dp2570
sg1219
(dp2571
g1221
F1
ssg1222
(dp2572
g1224
F1
ssg1225
(dp2573
g1227
F1
sg1228
F1
sg1229
F1
sg1230
F1
sg1231
F1
sg1232
F1
sg1233
F1
sg1234
F1
sg1235
F1
sg1236
F1
ssg1237
(dp2574
g1239
F1
sg1240
F1
ssg1245
(dp2575
g590
F2
ssg1247
(dp2576
g1249
F1
ssg1250
(dp2577
g1252
F1
sg1253
F1
sg1254
F1
sg1255
F1
ssg1256
(dp2578
g1258
F1
ssg1259
(dp2579
g1261
F1
ssg1262
(dp2580
g89
F27
sg90
F27
sg91
F27
sg92
F27
ssg1264
(dp2581
g452
F2
ssg1266
(dp2582
g1198
F2
ssg1268
(dp2583
sg1270
(dp2584
g1272
F1
ssg1273
(dp2585
g1275
F1
sg1276
F1
sg1277
F1
ssg1278
(dp2586
g1280
F2
sg1281
F2
ssg1282
(dp2587
g1280
F2
sg1281
F2
ssg1284
(dp2588
g1286
F1
ssg1287
(dp2589
sg1289
(dp2590
g1207
F2
ssg1295
(dp2591
g1293
F1
sg1294
F1
sg177
F3
sg178
F3
ssg1297
(dp2592
g1299
F1
ssg1300
(dp2593
g1302
F1
ssg1303
(dp2594
g1305
F1
ssg1306
(dp2595
g155
F4
ssg1308
(dp2596
g89
F27
sg90
F27
sg91
F27
sg92
F27
ssg1310
(dp2597
g1312
F1
sg60
F6
sg61
F6
ssg1313
(dp2598
g1315
F1
ssS'AGMHE'
p2599
(dp2600
S'b3619'
p2601
F1
ssg1474
(dp2602
g1476
F1
sg1477
F1
sg1478
F1
sg1479
F1
sg1480
F1
sg1481
F1
sg1482
F1
sg1483
F1
ssg1325
(dp2603
g1327
F1
ssg1328
(dp2604
g1330
F1
sg1331
F1
ssg1332
(dp2605
g1334
F1
ssg528
(dp2606
g530
F1
sg531
F1
sg532
F1
sg533
F1
sg534
F1
sg535
F1
sg536
F1
sg537
F1
sg538
F1
ssS'ECAP2pp'
p2607
(dp2608
g2328
F3
sg2329
F3
ssg1343
(dp2609
g543
F2
sg544
F2
sg545
F2
ssg1345
(dp2610
g1347
F1
ssg1348
(dp2611
g347
F2
sg158
F2
ssg1350
(dp2612
g89
F27
sg90
F27
sg92
F27
sg91
F27
ssg1352
(dp2613
g1354
F3
sg1355
F1
sg1356
F3
sg1357
F1
sg1358
F1
ssg1359
(dp2614
g632
F3
sg633
F3
ssg1361
(dp2615
sg1363
(dp2616
g1365
F1
sg1366
F1
ssg1367
(dp2617
sg1369
(dp2618
g1371
F1
sg227
F2
ssg1372
(dp2619
g1017
F2
ssg1374
(dp2620
g1376
F2
ssS'ECAP1pp'
p2621
(dp2622
g2328
F3
sg2329
F3
ssg1379
(dp2623
g1381
F1
sg1382
F1
ssg1383
(dp2624
sg1385
(dp2625
g1387
F1
ssg1388
(dp2626
g89
F27
sg90
F27
sg92
F27
sg91
F27
ssS'ME2'
p2627
(dp2628
S'b2463'
p2629
F1
ssg1394
(dp2630
g1014
F2
ssg1396
(dp2631
g28
F2
ssg1398
(dp2632
g58
F4
sg60
F6
sg61
F6
ssg1400
(dp2633
g1402
F1
sg1403
F1
ssS'FRUtex'
p2634
(dp2635
g89
F27
sg90
F27
sg91
F27
sg92
F27
ssg1404
(dp2636
g1406
F1
ssS'ACGAMT'
p2637
(dp2638
S'b3784'
p2639
F1
ssg1407
(dp2640
g1409
F1
ssS'ECA4OALpp'
p2641
(dp2642
S'b3622'
p2643
F1
ssg1410
(dp2644
g1412
F1
ssg1413
(dp2645
g89
F27
sg90
F27
sg91
F27
sg92
F27
ssg1415
(dp2646
g1417
F1
ssg1418
(dp2647
g31
F7
sg32
F7
ssg1420
(dp2648
g1059
F2
ssg2017
(dp2649
g2019
F1
sg2020
F1
sg2021
F1
ssS'EDTXS1'
p2650
(dp2651
S'b1054'
p2652
F1
ssS'EDTXS2'
p2653
(dp2654
S'b1855'
p2655
F1
ssg1426
(dp2656
g54
F5
sg738
F2
ssg1428
(dp2657
g1430
F1
sg1431
F1
ssg1432
(dp2658
g1434
F2
sg1435
F1
sg1436
F1
ssg1437
(dp2659
g1439
F2
sg1440
F2
sg1441
F2
sg1442
F2
sg1443
F2
ssg1444
(dp2660
g1446
F1
ssg1447
(dp2661
g886
F2
ssS'TDPGDH'
p2662
(dp2663
S'b2041'
p2664
F1
sS'b3788'
p2665
F1
ssg1449
(dp2666
g1451
F2
sg1452
F1
ssg1453
(dp2667
g1455
F1
sg1456
F1
ssg2030
(dp2668
g1243
F1
ssg1460
(dp2669
g344
F2
ssg1462
(dp2670
g1464
F1
ssg1465
(dp2671
sg252
(dp2672
sg1470
(dp2673
g186
F7
ssS'ECA4COLIPAabctex'
p2674
(dp2675
g1439
F2
sg1443
F2
sg1441
F2
sg1442
F2
sg1440
F2
ssg1472
(dp2676
g89
F27
sg90
F27
sg91
F27
sg92
F27
ssg1320
(dp2677
g1322
F1
ssg1484
(dp2678
g1486
F1
ssg1487
(dp2679
g1489
F1
ssg1490
(dp2680
g1492
F1
ssg1493
(dp2681
g1495
F1
sg1496
F1
ssS'GMHEPPA'
p2682
(dp2683
S'b0200'
p2684
F1
ssg1500
(dp2685
g89
F27
sg90
F27
sg91
F27
sg92
F27
ssg1502
(dp2686
g1504
F1
sg1505
F1
sg1506
F1
sg1507
F1
sg1508
F1
sg1509
F1
ssg1510
(dp2687
g1512
F1
ssg1513
(dp2688
g161
F2
ssg1515
(dp2689
g1517
F1
ssg1518
(dp2690
ssS'PYR_BATCH_mu=0.40_S'
p2691
(dp2692
S'THRt2pp'
p2693
(dp2694
S'b3823'
p2695
F1
sS'b0813'
p2696
F2
ssg4
(dp2697
g6
F1
ssg7
(dp2698
sg9
(dp2699
g11
F1
ssg12
(dp2700
g14
F1
ssg18
(dp2701
g20
F1
sg21
F1
sg22
F1
ssg23
(dp2702
g25
F1
ssg26
(dp2703
g28
F2
ssg29
(dp2704
g31
F7
sg32
F7
ssg278
(dp2705
g280
F2
ssg33
(dp2706
g35
F1
ssg36
(dp2707
g38
F1
ssg39
(dp2708
sg41
(dp2709
g43
F1
ssg44
(dp2710
g46
F1
ssg47
(dp2711
g49
F4
sg50
F3
sg51
F3
ssg55
(dp2712
g57
F2
sg58
F3
sg59
F2
sg60
F5
sg61
F5
ssg62
(dp2713
sg64
(dp2714
g66
F1
ssg67
(dp2715
g69
F2
sg70
F6
ssg71
(dp2716
g31
F7
sg32
F7
ssS'THRt4pp'
p2717
(dp2718
S'b3089'
p2719
F1
ssg77
(dp2720
g79
F1
ssg80
(dp2721
g82
F1
ssg83
(dp2722
g85
F1
sg86
F2
ssg1547
(dp2723
g362
F1
sg363
F1
ssg98
(dp2724
sg100
(dp2725
g102
F2
ssg103
(dp2726
g105
F2
sg106
F2
sg107
F2
sg108
F2
ssS'GLYCTO4'
p2727
(dp2728
g646
F1
sg647
F1
sg648
F1
ssg109
(dp2729
g111
F2
ssg112
(dp2730
g114
F1
ssg115
(dp2731
g117
F1
sg118
F2
ssg119
(dp2732
g121
F2
ssg122
(dp2733
sS'MOX_reverse'
p2734
(dp2735
sg124
(dp2736
g89
F28
sg90
F28
sg92
F28
sg91
F28
ssg126
(dp2737
sg133
(dp2738
g111
F2
ssg144
(dp2739
g146
F1
sg147
F1
ssg153
(dp2740
g155
F3
ssg156
(dp2741
g158
F2
ssg159
(dp2742
g161
F2
ssg162
(dp2743
sg167
(dp2744
g169
F1
ssg170
(dp2745
g105
F2
sg106
F2
sg107
F2
sg108
F2
ssg172
(dp2746
g174
F2
ssg1571
(dp2747
g1573
F1
ssg184
(dp2748
g186
F7
ssg1133
(dp2749
g1135
F1
ssg187
(dp2750
g189
F1
ssg194
(dp2751
g49
F4
sg50
F3
ssg196
(dp2752
g198
F1
sg199
F1
ssg202
(dp2753
g204
F1
ssg205
(dp2754
g207
F1
sg208
F1
ssg209
(dp2755
g155
F3
ssg213
(dp2756
g215
F1
ssg216
(dp2757
g218
F1
ssg219
(dp2758
g221
F1
ssg222
(dp2759
g224
F1
ssg225
(dp2760
g227
F2
ssg1369
(dp2761
g1371
F1
sg227
F2
ssg231
(dp2762
g233
F1
ssg234
(dp2763
g236
F1
sg237
F2
sg238
F2
ssg239
(dp2764
g241
F1
ssg2109
(dp2765
g1119
F1
sg1120
F1
ssS'CYTBDpp'
p2766
(dp2767
S'b0733'
p2768
F1
sS'b0734'
p2769
F1
sg2035
F2
sg2036
F2
ssg250
(dp2770
sg252
(dp2771
sg254
(dp2772
g256
F1
ssg257
(dp2773
g259
F1
sg260
F1
ssg261
(dp2774
g248
F2
sg249
F2
ssg263
(dp2775
g265
F1
ssS'MG2tpp'
p2776
(dp2777
g738
F3
ssg2170
(dp2778
sS'PYRt2rpp'
p2779
(dp2780
sg1606
(dp2781
g1434
F1
sg1435
F1
sg1436
F1
ssg281
(dp2782
g280
F2
ssg283
(dp2783
g276
F15
sg277
F14
ssg73
(dp2784
g75
F1
sg76
F1
ssg291
(dp2785
g89
F28
sg90
F28
sg91
F28
sg92
F28
ssg296
(dp2786
g298
F1
ssg302
(dp2787
g304
F1
ssg305
(dp2788
g307
F1
ssS'HOMt2pp'
p2789
(dp2790
g2696
F2
sS'b3824'
p2791
F1
ssg308
(dp2792
g310
F1
sg311
F3
ssg312
(dp2793
g311
F3
ssg242
(dp2794
g244
F1
sg245
F1
ssg322
(dp2795
g324
F1
ssg329
(dp2796
g49
F4
ssg331
(dp2797
g333
F1
ssg334
(dp2798
sg339
(dp2799
g341
F2
ssg342
(dp2800
g344
F2
ssg345
(dp2801
g347
F2
ssg348
(dp2802
g350
F1
ssS'PGM'
p2803
(dp2804
g95
F1
sg96
F1
sg97
F1
ssS'PGK'
p2805
(dp2806
g502
F1
ssg351
(dp2807
g353
F9
ssg481
(dp2808
g483
F3
ssg357
(dp2809
g359
F1
ssg2221
(dp2810
g327
F1
sg328
F1
sg174
F2
ssg364
(dp2811
g366
F1
ssg937
(dp2812
g939
F2
ssg375
(dp2813
g377
F1
ssg378
(dp2814
g380
F1
ssg381
(dp2815
g383
F1
ssg384
(dp2816
g386
F1
sg387
F1
ssg388
(dp2817
g186
F7
ssg390
(dp2818
g392
F2
ssg393
(dp2819
sg2238
(dp2820
sg400
(dp2821
g402
F1
sg403
F2
ssg404
(dp2822
g406
F1
ssg977
(dp2823
g979
F2
ssg410
(dp2824
g412
F1
ssg413
(dp2825
g415
F1
sg416
F1
ssg417
(dp2826
g419
F2
ssg420
(dp2827
g70
F6
sg422
F2
sg423
F6
ssg424
(dp2828
g426
F1
ssg427
(dp2829
g429
F1
sg430
F1
ssg431
(dp2830
g433
F1
sg434
F1
ssS'TRPtex_reverse'
p2831
(dp2832
g89
F28
sg90
F28
sg91
F28
sg92
F28
ssg435
(dp2833
g437
F1
ssg441
(dp2834
g419
F2
ssg443
(dp2835
g445
F2
sg446
F2
ssg447
(dp2836
g449
F1
sg177
F5
sg178
F5
ssg450
(dp2837
g452
F2
ssg453
(dp2838
g445
F2
sg446
F2
ssg455
(dp2839
g457
F1
ssg458
(dp2840
g460
F1
ssg461
(dp2841
g463
F1
ssg464
(dp2842
g466
F1
ssg467
(dp2843
g89
F28
sg90
F28
sg91
F28
sg92
F28
ssg469
(dp2844
g471
F1
ssg472
(dp2845
g474
F1
ssg475
(dp2846
g477
F1
ssS'FE3Ri'
p2847
(dp2848
g392
F2
ssg478
(dp2849
g480
F1
ssg1377
(dp2850
g1376
F2
ssg1676
(dp2851
sg354
(dp2852
g356
F1
ssg484
(dp2853
g486
F1
ssg490
(dp2854
g166
F2
sg492
F2
ssS'EX_fe3_e_reverse'
p2855
(dp2856
sg495
(dp2857
g497
F1
ssg498
(dp2858
g89
F28
sg90
F28
sg91
F28
sg92
F28
ssg1259
(dp2859
g1261
F1
ssg503
(dp2860
g505
F1
ssg506
(dp2861
g508
F1
ssg509
(dp2862
g511
F1
sg512
F2
ssg513
(dp2863
g515
F2
ssg516
(dp2864
g515
F2
ssg522
(dp2865
g524
F1
sg525
F1
ssg526
(dp2866
g89
F28
sg90
F28
sg91
F28
sg92
F28
ssg528
(dp2867
g530
F1
sg531
F1
sg532
F1
sg533
F1
sg534
F1
sg535
F1
sg536
F1
sg537
F1
sg538
F1
ssg539
(dp2868
sg541
(dp2869
g543
F2
sg544
F2
sg545
F2
ssg546
(dp2870
g89
F28
sg90
F28
sg92
F28
sg91
F28
ssg548
(dp2871
g550
F2
ssg551
(dp2872
g550
F2
ssg553
(dp2873
g555
F1
ssg556
(dp2874
g558
F1
ssg559
(dp2875
sg561
(dp2876
g563
F1
ssg564
(dp2877
g566
F1
sg567
F1
sg568
F1
ssg569
(dp2878
g571
F1
ssS'EX_mal_L_e'
p2879
(dp2880
sS'HOMtex_reverse'
p2881
(dp2882
g89
F28
sg90
F28
sg91
F28
sg92
F28
ssg572
(dp2883
g574
F1
ssg575
(dp2884
g89
F28
sg90
F28
sg92
F28
sg91
F28
ssg577
(dp2885
g579
F1
ssg580
(dp2886
g582
F1
sg583
F3
ssg584
(dp2887
g311
F3
ssg586
(dp2888
g54
F3
ssg588
(dp2889
g590
F2
ssg594
(dp2890
g186
F7
ssg596
(dp2891
sg598
(dp2892
g276
F15
sg277
F14
ssg600
(dp2893
g602
F1
ssg603
(dp2894
g276
F15
sg277
F14
ssg605
(dp2895
g276
F15
sg277
F14
ssg274
(dp2896
g276
F15
sg277
F14
ssg614
(dp2897
g616
F1
ssg617
(dp2898
g276
F15
sg277
F14
ssg619
(dp2899
g276
F15
sg277
F14
ssg621
(dp2900
g583
F3
ssg623
(dp2901
g31
F7
sg32
F7
ssg625
(dp2902
g627
F1
sg628
F2
sg629
F1
ssg630
(dp2903
g632
F2
sg633
F2
sg634
F1
sg635
F1
ssg636
(dp2904
sg638
(dp2905
g640
F2
sg641
F2
sg642
F2
sg643
F2
ssS'FRD3'
p2906
(dp2907
g640
F2
sg641
F2
sg642
F2
sg643
F2
ssg649
(dp2908
sg651
(dp2909
g653
F1
ssg654
(dp2910
g656
F1
ssg657
(dp2911
sg659
(dp2912
g661
F1
ssg662
(dp2913
g664
F1
ssg665
(dp2914
g667
F1
ssg668
(dp2915
g670
F1
ssg671
(dp2916
g673
F2
ssg674
(dp2917
g676
F1
ssg677
(dp2918
g679
F1
sg680
F1
ssg681
(dp2919
sg683
(dp2920
g685
F3
ssg686
(dp2921
g89
F28
sg90
F28
sg91
F28
sg92
F28
ssg688
(dp2922
g89
F28
sg90
F28
sg92
F28
sg91
F28
ssg690
(dp2923
g692
F1
ssg696
(dp2924
g69
F2
sg698
F1
ssg699
(dp2925
g701
F1
ssg702
(dp2926
g704
F2
ssg705
(dp2927
g707
F1
sg632
F2
sg633
F2
sg708
F1
ssg709
(dp2928
g711
F1
ssg712
(dp2929
g704
F2
ssg714
(dp2930
g716
F1
sg717
F1
sg718
F2
ssg719
(dp2931
g721
F1
ssg722
(dp2932
g724
F1
ssg725
(dp2933
g727
F7
sg728
F1
ssg407
(dp2934
g409
F1
ssg732
(dp2935
g70
F6
sg423
F6
ssg734
(dp2936
g423
F6
sg70
F6
sg422
F2
ssg736
(dp2937
g738
F3
ssg739
(dp2938
g741
F2
sg423
F6
ssg746
(dp2939
g51
F3
ssg748
(dp2940
g118
F2
ssS'DADK_reverse'
p2941
(dp2942
g353
F9
ssg750
(dp2943
g752
F1
sg753
F1
sg754
F1
sg755
F1
ssg756
(dp2944
g741
F2
sg423
F6
ssg758
(dp2945
g423
F6
ssg760
(dp2946
g341
F2
ssg762
(dp2947
g764
F1
ssg1765
(dp2948
g230
F1
ssg765
(dp2949
g512
F2
ssg767
(dp2950
g483
F3
ssg769
(dp2951
sg789
(dp2952
sS'GAPD_reverse'
p2953
(dp2954
g86
F2
ssg791
(dp2955
g793
F1
sg794
F1
ssg797
(dp2956
g799
F1
ssg1181
(dp2957
g1183
F1
sg628
F2
ssg800
(dp2958
g186
F7
ssg802
(dp2959
g804
F6
sg353
F9
ssg805
(dp2960
g804
F6
sg353
F9
ssg807
(dp2961
g804
F6
sg353
F9
ssg175
(dp2962
g177
F5
sg178
F5
sg179
F1
ssg1780
(dp2963
g804
F6
sg353
F9
ssg811
(dp2964
g804
F6
sg353
F9
ssg813
(dp2965
g804
F6
sg353
F9
ssg815
(dp2966
g727
F7
sg817
F1
ssg818
(dp2967
g820
F1
ssg821
(dp2968
g823
F1
sg31
F7
sg32
F7
ssg824
(dp2969
g826
F1
ssg827
(dp2970
g829
F3
ssg830
(dp2971
g727
F7
sg832
F3
ssg833
(dp2972
g727
F7
sg832
F3
ssg835
(dp2973
g837
F1
ssg838
(dp2974
g840
F1
ssg841
(dp2975
g727
F7
sg832
F3
ssg843
(dp2976
g89
F28
sg90
F28
sg92
F28
sg91
F28
ssg849
(dp2977
g851
F1
ssg852
(dp2978
g583
F3
ssg860
(dp2979
g89
F28
sg90
F28
sg92
F28
sg91
F28
ssg862
(dp2980
g864
F1
sg865
F1
ssg866
(dp2981
g727
F7
sg868
F2
ssg869
(dp2982
g727
F7
sg868
F2
ssg871
(dp2983
g60
F5
sg873
F1
sg61
F5
ssg876
(dp2984
g878
F1
sg879
F1
sg880
F1
sg881
F1
ssS'GHMT2r'
p2985
(dp2986
g1076
F2
ssg1813
(dp2987
g718
F2
sg1815
F1
sg1816
F1
ssg884
(dp2988
g886
F2
ssg887
(dp2989
sg889
(dp2990
g891
F1
ssg892
(dp2991
g894
F1
ssg897
(dp2992
g899
F1
ssg900
(dp2993
g902
F1
ssg903
(dp2994
g905
F1
ssg906
(dp2995
g908
F1
ssg909
(dp2996
g911
F2
ssg912
(dp2997
sg914
(dp2998
g916
F1
ssg917
(dp2999
g919
F1
sg920
F1
ssg921
(dp3000
g923
F1
ssg924
(dp3001
g926
F1
ssg927
(dp3002
g929
F1
ssg930
(dp3003
g276
F15
ssg934
(dp3004
g936
F1
ssg372
(dp3005
g374
F1
ssg940
(dp3006
g942
F1
ssg943
(dp3007
g945
F1
ssg946
(dp3008
sg948
(dp3009
g89
F28
sg90
F28
sg91
F28
sg92
F28
ssg1841
(dp3010
g1843
F1
ssg950
(dp3011
g952
F1
sg953
F1
sg954
F1
sg955
F1
sg956
F1
sg957
F1
ssg958
(dp3012
sg960
(dp3013
g939
F2
ssg962
(dp3014
g964
F1
sg965
F1
ssg2472
(dp3015
g89
F28
sg90
F28
sg92
F28
sg91
F28
ssg968
(dp3016
g970
F1
ssg971
(dp3017
g973
F1
ssg980
(dp3018
sg982
(dp3019
g673
F2
ssg1854
(dp3020
g17
F1
ssg984
(dp3021
g986
F1
ssg987
(dp3022
g989
F1
sg990
F1
sg991
F1
ssg992
(dp3023
g994
F1
ssg995
(dp3024
g997
F1
ssS'EX_hom_L_e'
p3025
(dp3026
sg998
(dp3027
g31
F7
sg32
F7
ssg1000
(dp3028
g1002
F1
sg1003
F1
ssg2487
(dp3029
g57
F2
sg58
F3
sg59
F2
sg60
F5
sg61
F5
ssg1006
(dp3030
g829
F3
ssg1008
(dp3031
g829
F3
ssS'MALt3pp'
p3032
(dp3033
sg1010
(dp3034
g54
F3
ssS'ALDD2y'
p3035
(dp3036
S'b3588'
p3037
F1
ssg1012
(dp3038
g1014
F2
ssg397
(dp3039
g399
F1
ssg1015
(dp3040
g1017
F2
sg1018
F1
ssg1019
(dp3041
g1021
F1
ssg1022
(dp3042
g1024
F1
ssg1025
(dp3043
g276
F15
sg277
F14
ssg1027
(dp3044
g276
F15
sg277
F14
ssg1029
(dp3045
g276
F15
sg277
F14
ssg1031
(dp3046
g276
F15
sg277
F14
ssg1033
(dp3047
g276
F15
sg277
F14
ssg1035
(dp3048
g911
F2
ssg1037
(dp3049
g276
F15
sg277
F14
ssg1039
(dp3050
g1041
F2
ssg1042
(dp3051
g1044
F1
sg1041
F2
ssS'ENO_reverse'
p3052
(dp3053
g593
F1
ssg1048
(dp3054
g1050
F1
ssg1051
(dp3055
g1053
F1
ssg1054
(dp3056
g1056
F1
ssg1060
(dp3057
g1062
F1
ssg1063
(dp3058
g1065
F1
sg1066
F1
ssg1067
(dp3059
g1069
F1
ssg1070
(dp3060
g1072
F1
ssg1073
(dp3061
g1075
F1
sg1076
F2
ssg1077
(dp3062
g51
F3
sg50
F3
ssg1079
(dp3063
g1081
F1
sg1082
F1
ssg1083
(dp3064
g1085
F1
ssg1086
(dp3065
g1088
F1
ssg1089
(dp3066
g1091
F1
ssg1092
(dp3067
g237
F2
sg238
F2
ssg1094
(dp3068
g102
F2
ssg1098
(dp3069
g1100
F1
ssg1101
(dp3070
g483
F3
ssg1103
(dp3071
g1105
F1
ssg1106
(dp3072
sg1108
(dp3073
g1110
F1
ssg1111
(dp3074
g1113
F1
ssS'PUNP6'
p3075
(dp3076
g1641
F1
sg685
F3
ssg1114
(dp3077
g1116
F1
ssS'PUNP2'
p3078
(dp3079
g685
F3
ssg1121
(dp3080
g1123
F1
ssg1124
(dp3081
g1126
F1
ssg1127
(dp3082
g1129
F1
ssS'ASPO6'
p3083
(dp3084
g1132
F1
ssg1136
(dp3085
g1138
F1
ssg1245
(dp3086
g590
F2
ssS'PYRtex'
p3087
(dp3088
g89
F28
sg90
F28
sg92
F28
sg91
F28
ssg1139
(dp3089
sg1141
(dp3090
g276
F15
sg277
F14
ssg1143
(dp3091
g1145
F1
sg1146
F1
ssg1150
(dp3092
g1152
F1
ssg1153
(dp3093
g49
F4
ssS'NADH10'
p3094
(dp3095
S'b1109'
p3096
F1
ssg1155
(dp3097
g31
F7
sg32
F7
ssg1157
(dp3098
g1159
F1
ssg1160
(dp3099
g186
F7
ssg1162
(dp3100
g1164
F1
ssg1165
(dp3101
g89
F28
sg90
F28
sg91
F28
sg92
F28
ssg1167
(dp3102
g1169
F1
ssg1170
(dp3103
g1172
F1
ssg1045
(dp3104
g1047
F1
ssg1173
(dp3105
sS'DADA'
p3106
(dp3107
S'b1623'
p3108
F1
ssg1175
(dp3109
g1177
F1
sg1178
F1
ssg795
(dp3110
g186
F7
ssg493
(dp3111
g166
F2
sg492
F2
ssg1184
(dp3112
g1186
F1
ssg1190
(dp3113
sg1192
(dp3114
g89
F28
sg90
F28
sg91
F28
sg92
F28
ssg1194
(dp3115
g89
F28
sg90
F28
sg92
F28
sg91
F28
ssg1196
(dp3116
g1198
F2
ssg1199
(dp3117
g979
F2
ssg1201
(dp3118
g1203
F1
sg1204
F1
ssg1205
(dp3119
g1207
F2
ssg1422
(dp3120
g1424
F1
sg1425
F1
ssg1208
(dp3121
g1210
F1
sg1211
F1
sg70
F6
sg1212
F1
sg1213
F1
ssg1214
(dp3122
g1216
F1
ssg1217
(dp3123
sg1219
(dp3124
g1221
F1
ssg1222
(dp3125
g1224
F1
ssg1950
(dp3126
g1952
F1
ssg1237
(dp3127
g1239
F1
sg1240
F1
ssg1954
(dp3128
g89
F28
sg90
F28
sg92
F28
sg91
F28
ssg1247
(dp3129
g1249
F1
ssg1250
(dp3130
g1252
F1
sg1253
F1
sg1254
F1
sg1255
F1
ssg1256
(dp3131
g1258
F1
ssg1262
(dp3132
g89
F28
sg90
F28
sg91
F28
sg92
F28
ssg1264
(dp3133
g452
F2
ssg1266
(dp3134
g1198
F2
ssg1270
(dp3135
g1272
F1
ssg1278
(dp3136
g1280
F2
sg1281
F2
ssg1282
(dp3137
g1280
F2
sg1281
F2
ssg1284
(dp3138
g1286
F1
ssg1287
(dp3139
sg1289
(dp3140
g1207
F2
ssg1971
(dp3141
g403
F2
ssg1974
(dp3142
g1293
F3
sg1294
F3
sg177
F5
sg178
F5
ssg1295
(dp3143
g1293
F3
sg1294
F3
sg177
F5
sg178
F5
ssS'RNDR1'
p3144
(dp3145
g1293
F3
sg1294
F3
sg177
F5
sg178
F5
ssg1297
(dp3146
g1299
F1
ssg1300
(dp3147
g1302
F1
ssS'TRPt2rpp_reverse'
p3148
(dp3149
S'b3161'
p3150
F1
sS'b1473'
p3151
F1
sS'b3709'
p3152
F1
sS'b0112'
p3153
F1
ssg1303
(dp3154
g1305
F1
ssg1306
(dp3155
g155
F3
ssg1308
(dp3156
g89
F28
sg90
F28
sg91
F28
sg92
F28
ssg1310
(dp3157
g1312
F1
sg60
F5
sg61
F5
ssg1313
(dp3158
g1315
F1
ssg1320
(dp3159
g1322
F1
ssg1323
(dp3160
g121
F2
ssg1325
(dp3161
g1327
F1
ssg1328
(dp3162
g1330
F1
sg1331
F1
ssg1332
(dp3163
g1334
F1
ssS'EX_trp_L_e'
p3164
(dp3165
sg1338
(dp3166
g353
F9
ssg1340
(dp3167
g1342
F1
ssg1343
(dp3168
g543
F2
sg544
F2
sg545
F2
ssg1345
(dp3169
g1347
F1
ssg1348
(dp3170
g347
F2
sg158
F2
ssg1350
(dp3171
g89
F28
sg90
F28
sg92
F28
sg91
F28
ssg1352
(dp3172
g1354
F1
sg1355
F1
sg1356
F1
sg1357
F1
sg1358
F1
ssg395
(dp3173
g70
F6
ssg1361
(dp3174
sg1363
(dp3175
g1365
F1
sg1366
F1
ssg1367
(dp3176
sg1372
(dp3177
g1017
F2
ssg1374
(dp3178
g1376
F2
ssS'FE3tex'
p3179
(dp3180
g89
F28
sg90
F28
sg91
F28
sg92
F28
ssg1379
(dp3181
g1381
F1
sg1382
F1
ssg1383
(dp3182
sg1385
(dp3183
g1387
F1
ssg1388
(dp3184
g89
F28
sg90
F28
sg92
F28
sg91
F28
ssg1394
(dp3185
g1014
F2
ssg1396
(dp3186
g28
F2
ssg1398
(dp3187
g58
F3
sg60
F5
sg61
F5
ssg1400
(dp3188
g1402
F1
sg1403
F1
ssg1407
(dp3189
g1409
F1
ssS'MALtex_reverse'
p3190
(dp3191
g89
F28
sg90
F28
sg91
F28
sg92
F28
ssg1410
(dp3192
g1412
F1
ssg1413
(dp3193
g89
F28
sg90
F28
sg91
F28
sg92
F28
ssg1418
(dp3194
g31
F7
sg32
F7
ssg246
(dp3195
g248
F2
sg249
F2
ssg2017
(dp3196
g2019
F1
sg2020
F1
sg2021
F1
ssg1426
(dp3197
g54
F3
sg738
F3
ssg1428
(dp3198
g1430
F1
sg1431
F1
ssg1437
(dp3199
g1439
F1
sg1440
F1
sg1441
F1
sg1442
F1
sg1443
F1
ssg1444
(dp3200
g1446
F1
ssg1447
(dp3201
g886
F2
ssg1449
(dp3202
g1451
F1
sg1452
F1
ssg1453
(dp3203
g1455
F1
sg1456
F1
ssg1457
(dp3204
g1459
F1
ssg729
(dp3205
g731
F1
ssg1460
(dp3206
g344
F2
ssg2033
(dp3207
g2035
F2
sg2036
F2
ssg1462
(dp3208
g1464
F1
ssg1465
(dp3209
sg1470
(dp3210
g186
F7
ssS'TPI_reverse'
p3211
(dp3212
g489
F1
ssg1474
(dp3213
g1476
F1
sg1477
F1
sg1478
F1
sg1479
F1
sg1480
F1
sg1481
F1
sg1482
F1
sg1483
F1
ssS'NTD6'
p3214
(dp3215
g2042
F1
sg2043
F1
ssg1484
(dp3216
g1486
F1
ssg1487
(dp3217
g1489
F1
ssg1490
(dp3218
g1492
F1
ssg1493
(dp3219
g1495
F1
sg1496
F1
ssg1497
(dp3220
g1499
F1
ssg1500
(dp3221
g89
F28
sg90
F28
sg91
F28
sg92
F28
ssg1502
(dp3222
g1504
F1
sg1505
F1
sg1506
F1
sg1507
F1
sg1508
F1
sg1509
F1
ssg1510
(dp3223
g1512
F1
ssg1513
(dp3224
g161
F2
ssg266
(dp3225
g268
F1
sg269
F1
sg270
F1
ssg1515
(dp3226
g1517
F1
ssg1518
(dp3227
ssS'SUCC_BATCH_mu=0.44_S'
p3228
(dp3229
g4
(dp3230
g6
F1
ssg9
(dp3231
g11
F1
ssg12
(dp3232
g14
F1
ssg18
(dp3233
g20
F1
sg21
F1
sg22
F1
ssS'Htex'
p3234
(dp3235
g89
F29
sg90
F29
sg91
F29
sg92
F29
ssg23
(dp3236
g25
F1
ssg26
(dp3237
g28
F2
ssg29
(dp3238
g31
F7
sg32
F7
ssg278
(dp3239
g280
F2
ssg33
(dp3240
g35
F1
ssg36
(dp3241
g38
F1
ssg39
(dp3242
sS'EX_h_e_reverse'
p3243
(dp3244
sg41
(dp3245
g43
F1
ssg44
(dp3246
g46
F1
ssg47
(dp3247
g49
F4
sg50
F3
sg51
F3
ssg52
(dp3248
g54
F5
ssg55
(dp3249
g57
F1
sg58
F2
sg59
F1
sg60
F4
sg61
F4
ssg62
(dp3250
sg64
(dp3251
g66
F1
ssg67
(dp3252
g69
F2
sg70
F6
ssg71
(dp3253
g31
F7
sg32
F7
ssg73
(dp3254
g75
F1
sg76
F1
ssg77
(dp3255
g79
F1
ssg80
(dp3256
g82
F1
ssg83
(dp3257
g85
F1
sg86
F2
ssg98
(dp3258
sg100
(dp3259
g102
F2
ssg103
(dp3260
g105
F2
sg106
F2
sg107
F2
sg108
F2
ssg1553
(dp3261
g646
F1
sg647
F1
sg648
F1
ssg112
(dp3262
g114
F1
ssg115
(dp3263
g117
F1
sg118
F2
ssg122
(dp3264
sg2734
(dp3265
sg124
(dp3266
g89
F29
sg90
F29
sg92
F29
sg91
F29
ssg126
(dp3267
sg130
(dp3268
g132
F1
ssg133
(dp3269
g111
F2
ssg135
(dp3270
g137
F1
ssg138
(dp3271
g140
F1
sg141
F1
sg142
F1
sg143
F1
ssg144
(dp3272
g146
F1
sg147
F1
ssg153
(dp3273
g155
F3
ssg156
(dp3274
g158
F2
ssg159
(dp3275
g161
F2
ssg162
(dp3276
sg164
(dp3277
g166
F3
ssg167
(dp3278
g169
F1
ssg170
(dp3279
g105
F2
sg106
F2
sg107
F2
sg108
F2
ssg175
(dp3280
g177
F5
sg178
F5
sg179
F1
ssg184
(dp3281
g186
F7
ssg187
(dp3282
g189
F1
ssg190
(dp3283
g192
F1
sg193
F1
ssg194
(dp3284
g49
F4
sg50
F3
ssg196
(dp3285
g198
F1
sg199
F1
ssg200
(dp3286
sg636
(dp3287
sg202
(dp3288
g204
F1
ssg205
(dp3289
g207
F1
sg208
F1
ssg209
(dp3290
g155
F3
ssg213
(dp3291
g215
F1
ssg216
(dp3292
g218
F1
ssg219
(dp3293
g221
F1
ssg222
(dp3294
g224
F1
ssg225
(dp3295
g227
F2
ssg228
(dp3296
g230
F1
ssg231
(dp3297
g233
F1
ssg234
(dp3298
g236
F1
sg237
F2
sg238
F2
ssg2109
(dp3299
g1119
F1
sg1120
F1
ssg246
(dp3300
g248
F2
sg249
F2
ssg252
(dp3301
sg254
(dp3302
g256
F1
ssg257
(dp3303
g259
F1
sg260
F1
ssg261
(dp3304
g248
F2
sg249
F2
ssg263
(dp3305
g265
F1
ssg266
(dp3306
g268
F1
sg269
F1
sg270
F1
ssg271
(dp3307
g273
F1
ssg2170
(dp3308
sg1422
(dp3309
g1424
F1
sg1425
F1
ssg1606
(dp3310
g1434
F2
sg1435
F1
sg1436
F1
ssg281
(dp3311
g280
F2
ssg283
(dp3312
g276
F15
sg277
F14
ssg285
(dp3313
g287
F1
ssS'GLYCtex_reverse'
p3314
(dp3315
g89
F29
sg90
F29
sg92
F29
sg91
F29
ssg291
(dp3316
g89
F29
sg90
F29
sg91
F29
sg92
F29
ssg293
(dp3317
g295
F1
ssg296
(dp3318
g298
F1
ssg299
(dp3319
g301
F1
ssg302
(dp3320
g304
F1
ssg305
(dp3321
g307
F1
ssg308
(dp3322
g310
F1
sg311
F3
ssg312
(dp3323
g311
F3
ssg242
(dp3324
g244
F1
sg245
F1
ssg322
(dp3325
g324
F1
ssg329
(dp3326
g49
F4
ssg331
(dp3327
g333
F1
ssg334
(dp3328
sg339
(dp3329
g341
F2
ssg342
(dp3330
g344
F2
ssg345
(dp3331
g347
F2
ssg348
(dp3332
g350
F1
ssg2803
(dp3333
g95
F1
sg96
F1
sg97
F1
ssg2805
(dp3334
g502
F1
ssg351
(dp3335
g353
F9
ssg354
(dp3336
g356
F1
ssg357
(dp3337
g359
F1
ssg2221
(dp3338
g327
F1
sg328
F1
sg174
F1
ssg364
(dp3339
g366
F1
ssg370
(dp3340
g54
F5
ssg372
(dp3341
g374
F1
ssg375
(dp3342
g377
F1
ssg378
(dp3343
g380
F1
ssg381
(dp3344
g383
F1
ssg384
(dp3345
g386
F1
sg387
F1
ssg388
(dp3346
g186
F7
ssg390
(dp3347
g392
F1
ssg2238
(dp3348
sg400
(dp3349
g402
F1
sg403
F1
ssg404
(dp3350
g406
F1
ssg407
(dp3351
g409
F1
ssg410
(dp3352
g412
F1
ssg413
(dp3353
g415
F1
sg416
F1
ssg417
(dp3354
g419
F2
ssg420
(dp3355
g70
F6
sg422
F2
sg423
F6
ssg424
(dp3356
g426
F1
ssg427
(dp3357
g429
F1
sg430
F1
ssg431
(dp3358
g433
F1
sg434
F1
ssg435
(dp3359
g437
F1
ssg441
(dp3360
g419
F2
ssg443
(dp3361
g445
F2
sg446
F2
ssg447
(dp3362
g449
F1
sg177
F5
sg178
F5
ssg450
(dp3363
g452
F2
ssg453
(dp3364
g445
F2
sg446
F2
ssg455
(dp3365
g457
F1
ssg458
(dp3366
g460
F1
ssS'SERt2rpp_reverse'
p3367
(dp3368
S'b3116'
p3369
F1
sS'b2796'
p3370
F1
ssg461
(dp3371
g463
F1
ssg464
(dp3372
g466
F1
ssg467
(dp3373
g89
F29
sg90
F29
sg91
F29
sg92
F29
ssg469
(dp3374
g471
F1
ssg472
(dp3375
g474
F1
ssg475
(dp3376
g477
F1
ssg478
(dp3377
g480
F1
ssg1377
(dp3378
g1376
F2
ssg481
(dp3379
g483
F3
ssg484
(dp3380
g486
F1
ssg490
(dp3381
g166
F3
sg492
F2
ssg360
(dp3382
g362
F1
sg363
F1
ssg2855
(dp3383
sg495
(dp3384
g497
F1
ssg498
(dp3385
g89
F29
sg90
F29
sg91
F29
sg92
F29
ssg1259
(dp3386
g1261
F1
ssg503
(dp3387
g505
F1
ssg506
(dp3388
g508
F1
ssg509
(dp3389
g511
F1
sg512
F2
ssg513
(dp3390
g515
F2
ssg516
(dp3391
g515
F2
ssg522
(dp3392
g524
F1
sg525
F1
ssg526
(dp3393
g89
F29
sg90
F29
sg91
F29
sg92
F29
ssg528
(dp3394
g530
F1
sg531
F1
sg532
F1
sg533
F1
sg534
F1
sg535
F1
sg536
F1
sg537
F1
sg538
F1
ssg541
(dp3395
g543
F2
sg544
F2
sg545
F2
ssg546
(dp3396
g89
F29
sg90
F29
sg92
F29
sg91
F29
ssg548
(dp3397
g550
F2
ssg551
(dp3398
g550
F2
ssg553
(dp3399
g555
F1
ssg556
(dp3400
g558
F1
ssg561
(dp3401
g563
F1
ssg564
(dp3402
g566
F1
sg567
F1
sg568
F1
ssg569
(dp3403
g571
F1
ssg2879
(dp3404
sg572
(dp3405
g574
F1
ssg575
(dp3406
g89
F29
sg90
F29
sg92
F29
sg91
F29
ssg2302
(dp3407
g2304
F1
ssg577
(dp3408
g579
F1
ssg580
(dp3409
g582
F1
sg583
F3
ssg584
(dp3410
g311
F3
ssg586
(dp3411
g54
F5
ssg588
(dp3412
g590
F2
ssg594
(dp3413
g186
F7
ssg596
(dp3414
sg598
(dp3415
g276
F15
sg277
F14
ssg600
(dp3416
g602
F1
ssg603
(dp3417
g276
F15
sg277
F14
ssg605
(dp3418
g276
F15
sg277
F14
ssg274
(dp3419
g276
F15
sg277
F14
ssg614
(dp3420
g616
F1
ssg617
(dp3421
g276
F15
sg277
F14
ssg619
(dp3422
g276
F15
sg277
F14
ssg621
(dp3423
g583
F3
ssg623
(dp3424
g31
F7
sg32
F7
ssg625
(dp3425
g627
F1
sg628
F2
sg629
F1
ssg630
(dp3426
g632
F2
sg633
F2
sg634
F1
sg635
F1
ssS'SERtex_reverse'
p3427
(dp3428
g89
F29
sg90
F29
sg91
F29
sg92
F29
ssg109
(dp3429
g111
F2
ssg638
(dp3430
g640
F1
sg641
F1
sg642
F1
sg643
F1
ssg649
(dp3431
sg651
(dp3432
g653
F1
ssg654
(dp3433
g656
F1
ssg657
(dp3434
sg659
(dp3435
g661
F1
ssg662
(dp3436
g664
F1
ssg665
(dp3437
g667
F1
ssg668
(dp3438
g670
F1
ssg671
(dp3439
g673
F2
ssg674
(dp3440
g676
F1
ssg677
(dp3441
g679
F1
sg680
F1
ssg681
(dp3442
sg683
(dp3443
g685
F1
ssg688
(dp3444
g89
F29
sg90
F29
sg92
F29
sg91
F29
ssg2359
(dp3445
g2361
F1
ssg690
(dp3446
g692
F1
ssg693
(dp3447
g695
F1
ssg696
(dp3448
g69
F2
sg698
F1
ssg699
(dp3449
g701
F1
ssg702
(dp3450
g704
F2
ssg705
(dp3451
g707
F1
sg632
F2
sg633
F2
sg708
F1
ssg709
(dp3452
g711
F1
ssg712
(dp3453
g704
F2
ssS'GLYCL'
p3454
(dp3455
g718
F3
sS'b2903'
p3456
F1
sS'b2904'
p3457
F1
sS'b2905'
p3458
F1
ssg714
(dp3459
g716
F1
sg717
F1
sg718
F3
ssg719
(dp3460
g721
F1
ssg722
(dp3461
g724
F1
ssg725
(dp3462
g727
F7
sg728
F1
ssg729
(dp3463
g731
F1
ssg732
(dp3464
g70
F6
sg423
F6
ssg734
(dp3465
g423
F6
sg70
F6
sg422
F2
ssg736
(dp3466
g738
F2
ssg739
(dp3467
g741
F2
sg423
F6
ssg742
(dp3468
g744
F1
sg745
F2
ssg746
(dp3469
g51
F3
ssg748
(dp3470
g118
F2
ssg756
(dp3471
g741
F2
sg423
F6
ssg758
(dp3472
g423
F6
ssg760
(dp3473
g341
F2
ssg762
(dp3474
g764
F1
ssg765
(dp3475
g512
F2
ssg767
(dp3476
g483
F3
ssg769
(dp3477
sg774
(dp3478
g776
F2
sg777
F2
sg778
F2
sg779
F2
sg780
F2
sg781
F2
sg782
F2
sg783
F2
sg784
F2
sg785
F2
sg786
F2
sg787
F2
sg788
F2
ssg789
(dp3479
sg2953
(dp3480
g86
F2
ssg791
(dp3481
g793
F1
sg794
F1
ssg795
(dp3482
g186
F7
ssg797
(dp3483
g799
F1
ssg1181
(dp3484
g1183
F1
sg628
F2
ssg800
(dp3485
g186
F7
ssg802
(dp3486
g804
F7
sg353
F9
ssg805
(dp3487
g804
F7
sg353
F9
ssg807
(dp3488
g804
F7
sg353
F9
ssg809
(dp3489
g804
F7
sg353
F9
ssg1780
(dp3490
g804
F7
sg353
F9
ssg811
(dp3491
g804
F7
sg353
F9
ssg813
(dp3492
g804
F7
sg353
F9
ssg815
(dp3493
g727
F7
sg817
F1
ssg818
(dp3494
g820
F1
ssg821
(dp3495
g823
F1
sg31
F7
sg32
F7
ssg824
(dp3496
g826
F1
ssg827
(dp3497
g829
F3
ssg830
(dp3498
g727
F7
sg832
F3
ssg1797
(dp3499
g1451
F2
ssg833
(dp3500
g727
F7
sg832
F3
ssg838
(dp3501
g840
F1
ssg841
(dp3502
g727
F7
sg832
F3
ssg843
(dp3503
g89
F29
sg90
F29
sg92
F29
sg91
F29
ssg849
(dp3504
g851
F1
ssg852
(dp3505
g583
F3
ssg860
(dp3506
g89
F29
sg90
F29
sg92
F29
sg91
F29
ssg862
(dp3507
g864
F1
sg865
F1
ssg866
(dp3508
g727
F7
sg868
F2
ssg869
(dp3509
g727
F7
sg868
F2
ssg871
(dp3510
g60
F4
sg873
F1
sg61
F4
ssg876
(dp3511
g878
F1
sg879
F1
sg880
F1
sg881
F1
ssg2985
(dp3512
g1076
F1
ssg1813
(dp3513
g718
F3
sg1815
F1
sg1816
F1
ssg884
(dp3514
g886
F2
ssg887
(dp3515
sg889
(dp3516
g891
F1
ssg892
(dp3517
g894
F1
ssg897
(dp3518
g899
F1
ssg900
(dp3519
g902
F1
ssg903
(dp3520
g905
F1
ssg906
(dp3521
g908
F1
ssg909
(dp3522
g911
F2
ssg912
(dp3523
sg914
(dp3524
g916
F1
ssg917
(dp3525
g919
F1
sg920
F1
ssg921
(dp3526
g923
F1
ssg924
(dp3527
g926
F1
ssg927
(dp3528
g929
F1
ssg930
(dp3529
g276
F15
ssg934
(dp3530
g936
F1
ssg937
(dp3531
g939
F2
ssg940
(dp3532
g942
F1
ssg943
(dp3533
g945
F1
ssg946
(dp3534
sg948
(dp3535
g89
F29
sg90
F29
sg91
F29
sg92
F29
ssg950
(dp3536
g952
F1
sg953
F1
sg954
F1
sg955
F1
sg956
F1
sg957
F1
ssg958
(dp3537
sg960
(dp3538
g939
F2
ssg962
(dp3539
g964
F1
sg965
F1
ssg2472
(dp3540
g89
F29
sg90
F29
sg92
F29
sg91
F29
ssg968
(dp3541
g970
F1
ssg971
(dp3542
g973
F1
ssg977
(dp3543
g979
F2
ssg980
(dp3544
sg982
(dp3545
g673
F2
ssS'SSALx'
p3546
(dp3547
g745
F2
ssg1854
(dp3548
g17
F1
ssg984
(dp3549
g986
F1
ssg987
(dp3550
g989
F1
sg990
F1
sg991
F1
ssg1861
(dp3551
g1434
F2
ssg992
(dp3552
g994
F1
ssg995
(dp3553
g997
F1
ssg998
(dp3554
g31
F7
sg32
F7
ssg1000
(dp3555
g1002
F1
sg1003
F1
ssg1004
(dp3556
g89
F29
sg90
F29
sg91
F29
sg92
F29
ssg1006
(dp3557
g829
F3
ssg1008
(dp3558
g829
F3
ssg3032
(dp3559
sg1010
(dp3560
g54
F5
ssg1012
(dp3561
g1014
F2
ssg397
(dp3562
g399
F1
ssg1015
(dp3563
g1017
F2
sg1018
F1
ssg1019
(dp3564
g1021
F1
ssg1022
(dp3565
g1024
F1
ssg1025
(dp3566
g276
F15
sg277
F14
ssg1027
(dp3567
g276
F15
sg277
F14
ssg1029
(dp3568
g276
F15
sg277
F14
ssg1031
(dp3569
g276
F15
sg277
F14
ssg1033
(dp3570
g276
F15
sg277
F14
ssg1035
(dp3571
g911
F2
ssg1037
(dp3572
g276
F15
sg277
F14
ssg1039
(dp3573
g1041
F2
ssg1042
(dp3574
g1044
F1
sg1041
F2
ssg3052
(dp3575
g593
F1
ssg1048
(dp3576
g1050
F1
ssg1051
(dp3577
g1053
F1
ssg1054
(dp3578
g1056
F1
ssg1060
(dp3579
g1062
F1
ssS'SUCCt2_2pp'
p3580
(dp3581
S'b3528'
p3582
F1
ssS'EX_glyc_e'
p3583
(dp3584
sg1063
(dp3585
g1065
F1
sg1066
F1
ssg1067
(dp3586
g1069
F1
ssg1070
(dp3587
g1072
F1
ssg1077
(dp3588
g51
F3
sg50
F3
ssg1079
(dp3589
g1081
F1
sg1082
F1
ssS'GARFT'
p3590
(dp3591
S'b2500'
p3592
F1
ssg1083
(dp3593
g1085
F1
ssg1086
(dp3594
g1088
F1
ssg1089
(dp3595
g1091
F1
ssg1092
(dp3596
g237
F2
sg238
F2
ssg1094
(dp3597
g102
F2
ssg1096
(dp3598
g776
F2
sg777
F2
sg778
F2
sg785
F2
sg780
F2
sg781
F2
sg782
F2
sg783
F2
sg784
F2
sg786
F2
sg779
F2
sg787
F2
sg788
F2
ssg1098
(dp3599
g1100
F1
ssg1101
(dp3600
g483
F3
ssg1103
(dp3601
g1105
F1
ssg1106
(dp3602
sg1108
(dp3603
g1110
F1
ssg1111
(dp3604
g1113
F1
ssg1114
(dp3605
g1116
F1
ssS'EX_ser_L_e'
p3606
(dp3607
sg1121
(dp3608
g1123
F1
ssg1124
(dp3609
g1126
F1
ssg1127
(dp3610
g1129
F1
ssg1130
(dp3611
g1132
F1
ssg1133
(dp3612
g1135
F1
ssg1136
(dp3613
g1138
F1
ssg1139
(dp3614
sg1141
(dp3615
g276
F15
sg277
F14
ssg1143
(dp3616
g1145
F1
sg1146
F1
ssg1921
(dp3617
g1149
F1
ssg1150
(dp3618
g1152
F1
ssg1153
(dp3619
g49
F4
ssg1155
(dp3620
g31
F7
sg32
F7
ssg1157
(dp3621
g1159
F1
ssg1160
(dp3622
g186
F7
ssg1162
(dp3623
g1164
F1
ssg1165
(dp3624
g89
F29
sg90
F29
sg91
F29
sg92
F29
ssg1167
(dp3625
g1169
F1
ssg1170
(dp3626
g1172
F1
ssg1045
(dp3627
g1047
F1
ssg1173
(dp3628
sS'SUCCtex'
p3629
(dp3630
g89
F29
sg90
F29
sg91
F29
sg92
F29
ssg1175
(dp3631
g1177
F1
sg1178
F1
ssg1179
(dp3632
sg493
(dp3633
g166
F3
sg492
F2
ssg1184
(dp3634
g1186
F1
ssg1187
(dp3635
g1189
F1
ssg1190
(dp3636
sg1192
(dp3637
g89
F29
sg90
F29
sg91
F29
sg92
F29
ssg1194
(dp3638
g89
F29
sg90
F29
sg92
F29
sg91
F29
ssg1196
(dp3639
g1198
F2
ssg1199
(dp3640
g979
F2
ssg1201
(dp3641
g1203
F1
sg1204
F1
ssg1205
(dp3642
g1207
F2
ssg1208
(dp3643
g1210
F1
sg1211
F1
sg70
F6
sg1212
F1
sg1213
F1
ssg1214
(dp3644
g1216
F1
ssg1217
(dp3645
sg1219
(dp3646
g1221
F1
ssg1222
(dp3647
g1224
F1
ssg1237
(dp3648
g1239
F1
sg1240
F1
ssg1245
(dp3649
g590
F2
ssg1247
(dp3650
g1249
F1
ssg1250
(dp3651
g1252
F1
sg1253
F1
sg1254
F1
sg1255
F1
ssg1256
(dp3652
g1258
F1
ssg1262
(dp3653
g89
F29
sg90
F29
sg91
F29
sg92
F29
ssg1264
(dp3654
g452
F2
ssg1266
(dp3655
g1198
F2
ssg1268
(dp3656
sg1270
(dp3657
g1272
F1
ssg1278
(dp3658
g1280
F2
sg1281
F2
ssg1282
(dp3659
g1280
F2
sg1281
F2
ssg1284
(dp3660
g1286
F1
ssg1287
(dp3661
sg1289
(dp3662
g1207
F2
ssg1291
(dp3663
g1293
F3
sg1294
F3
sg177
F5
sg178
F5
ssg1974
(dp3664
g1293
F3
sg1294
F3
sg177
F5
sg178
F5
ssg1295
(dp3665
g1293
F3
sg1294
F3
sg177
F5
sg178
F5
ssg1297
(dp3666
g1299
F1
ssg1300
(dp3667
g1302
F1
ssg1303
(dp3668
g1305
F1
ssg1306
(dp3669
g155
F3
ssg1308
(dp3670
g89
F29
sg90
F29
sg91
F29
sg92
F29
ssg1310
(dp3671
g1312
F1
sg60
F4
sg61
F4
ssg1313
(dp3672
g1315
F1
ssg7
(dp3673
sg1323
(dp3674
g121
F1
ssg1325
(dp3675
g1327
F1
ssg1328
(dp3676
g1330
F1
sg1331
F1
ssg1332
(dp3677
g1334
F1
ssg1338
(dp3678
g353
F9
ssg1340
(dp3679
g1342
F1
ssg1343
(dp3680
g543
F2
sg544
F2
sg545
F2
ssg1345
(dp3681
g1347
F1
ssg1348
(dp3682
g347
F2
sg158
F2
ssg1350
(dp3683
g89
F29
sg90
F29
sg92
F29
sg91
F29
ssg1352
(dp3684
g1354
F1
sg1355
F1
sg1356
F1
sg1357
F1
sg1358
F1
ssg395
(dp3685
g70
F6
ssg1361
(dp3686
sg1363
(dp3687
g1365
F1
sg1366
F1
ssg1367
(dp3688
sg1369
(dp3689
g1371
F1
sg227
F2
ssg1372
(dp3690
g1017
F2
ssg1374
(dp3691
g1376
F2
ssg3179
(dp3692
g89
F29
sg90
F29
sg91
F29
sg92
F29
ssg1379
(dp3693
g1381
F1
sg1382
F1
ssg1383
(dp3694
sg1385
(dp3695
g1387
F1
ssg1388
(dp3696
g89
F29
sg90
F29
sg92
F29
sg91
F29
ssg2627
(dp3697
g2629
F1
ssg1390
(dp3698
g1392
F1
sg1393
F1
ssg1394
(dp3699
g1014
F2
ssg1396
(dp3700
g28
F2
ssg1398
(dp3701
g58
F2
sg60
F4
sg61
F4
ssg1400
(dp3702
g1402
F1
sg1403
F1
ssg1407
(dp3703
g1409
F1
ssg3190
(dp3704
g89
F29
sg90
F29
sg91
F29
sg92
F29
ssg1410
(dp3705
g1412
F1
ssg1413
(dp3706
g89
F29
sg90
F29
sg91
F29
sg92
F29
ssg1415
(dp3707
g1417
F1
ssg1418
(dp3708
g31
F7
sg32
F7
ssS'MTHFC'
p3709
(dp3710
g1059
F2
ssS'MTHFD'
p3711
(dp3712
g1059
F2
ssg2017
(dp3713
g2019
F1
sg2020
F1
sg2021
F1
ssg1426
(dp3714
g54
F5
sg738
F2
ssg1428
(dp3715
g1430
F1
sg1431
F1
ssg1437
(dp3716
g1439
F1
sg1440
F1
sg1441
F1
sg1442
F1
sg1443
F1
ssg1444
(dp3717
g1446
F1
ssg1447
(dp3718
g886
F2
ssg1449
(dp3719
g1451
F2
sg1452
F1
ssg1453
(dp3720
g1455
F1
sg1456
F1
ssg1457
(dp3721
g1459
F1
ssg1460
(dp3722
g344
F2
ssg1465
(dp3723
sg1470
(dp3724
g186
F7
ssg3211
(dp3725
g489
F1
ssg1474
(dp3726
g1476
F1
sg1477
F1
sg1478
F1
sg1479
F1
sg1480
F1
sg1481
F1
sg1482
F1
sg1483
F1
ssg1484
(dp3727
g1486
F1
ssS'PDX5PO2'
p3728
(dp3729
sg1487
(dp3730
g1489
F1
ssg1490
(dp3731
g1492
F1
ssg1493
(dp3732
g1495
F1
sg1496
F1
ssg1497
(dp3733
g1499
F1
ssg1500
(dp3734
g89
F29
sg90
F29
sg91
F29
sg92
F29
ssg1502
(dp3735
g1504
F1
sg1505
F1
sg1506
F1
sg1507
F1
sg1508
F1
sg1509
F1
ssg1510
(dp3736
g1512
F1
ssg1513
(dp3737
g161
F2
ssg1515
(dp3738
g1517
F1
ssg1518
(dp3739
ssS'ACE_BATCH_mu=0.3_S'
p3740
(dp3741
g4
(dp3742
g6
F1
ssg7
(dp3743
sg9
(dp3744
g11
F1
ssg12
(dp3745
g14
F1
ssg18
(dp3746
g20
F1
sg21
F1
sg22
F1
ssg23
(dp3747
g25
F1
ssg26
(dp3748
g28
F2
ssg29
(dp3749
g31
F7
sg32
F7
ssg278
(dp3750
g280
F2
ssg33
(dp3751
g35
F1
ssg36
(dp3752
g38
F1
ssg39
(dp3753
sg41
(dp3754
g43
F1
ssg44
(dp3755
g46
F1
ssg47
(dp3756
g49
F4
sg50
F3
sg51
F3
ssg52
(dp3757
g54
F5
ssg55
(dp3758
g57
F2
sg58
F3
sg59
F2
sg60
F5
sg61
F5
ssg62
(dp3759
sg64
(dp3760
g66
F1
ssg67
(dp3761
g69
F2
sg70
F6
ssg71
(dp3762
g31
F7
sg32
F7
ssg77
(dp3763
g79
F1
ssg80
(dp3764
g82
F1
ssg83
(dp3765
g85
F1
sg86
F2
ssg1547
(dp3766
g362
F1
sg363
F1
ssg98
(dp3767
sg100
(dp3768
g102
F2
ssg103
(dp3769
g105
F2
sg106
F2
sg107
F2
sg108
F2
ssg1553
(dp3770
g646
F1
sg647
F1
sg648
F1
ssg112
(dp3771
g114
F1
ssg115
(dp3772
g117
F1
sg118
F2
ssg119
(dp3773
g121
F2
ssg122
(dp3774
sg2734
(dp3775
sg124
(dp3776
g89
F25
sg90
F25
sg92
F25
sg91
F25
ssg3078
(dp3777
g685
F2
ssg133
(dp3778
g111
F2
ssg138
(dp3779
g140
F1
sg141
F1
sg142
F1
sg143
F1
ssg144
(dp3780
g146
F1
sg147
F1
ssg153
(dp3781
g155
F3
ssg156
(dp3782
g158
F2
ssg159
(dp3783
g161
F2
ssg162
(dp3784
sg167
(dp3785
g169
F1
ssg170
(dp3786
g105
F2
sg106
F2
sg107
F2
sg108
F2
ssg172
(dp3787
g174
F2
ssg1571
(dp3788
g1573
F1
ssg180
(dp3789
g182
F1
sg183
F1
ssg184
(dp3790
g186
F7
ssg187
(dp3791
g189
F1
ssg194
(dp3792
g49
F4
sg50
F3
ssg196
(dp3793
g198
F1
sg199
F1
ssg200
(dp3794
sg636
(dp3795
sg202
(dp3796
g204
F1
ssg205
(dp3797
g207
F1
sg208
F1
ssg209
(dp3798
g155
F3
ssg213
(dp3799
g215
F1
ssg216
(dp3800
g218
F1
ssg219
(dp3801
g221
F1
ssg222
(dp3802
g224
F1
ssg225
(dp3803
g227
F2
ssg228
(dp3804
g230
F1
ssg231
(dp3805
g233
F1
ssg234
(dp3806
g236
F1
sg237
F2
sg238
F2
ssg239
(dp3807
g241
F1
ssg246
(dp3808
g248
F2
sg249
F2
ssg250
(dp3809
sg252
(dp3810
sg254
(dp3811
g256
F1
ssg257
(dp3812
g259
F1
sg260
F1
ssg261
(dp3813
g248
F2
sg249
F2
ssg263
(dp3814
g265
F1
ssg266
(dp3815
g268
F1
sg269
F1
sg270
F1
ssS'ACtex'
p3816
(dp3817
g89
F25
sg90
F25
sg92
F25
sg91
F25
ssg1422
(dp3818
g1424
F1
sg1425
F1
ssg1606
(dp3819
g1434
F2
sg1435
F1
sg1436
F1
ssg281
(dp3820
g280
F2
ssg283
(dp3821
g276
F15
sg277
F14
ssg285
(dp3822
g287
F2
ssg73
(dp3823
g75
F1
sg76
F1
ssg291
(dp3824
g89
F25
sg90
F25
sg91
F25
sg92
F25
ssg293
(dp3825
g295
F1
ssg296
(dp3826
g298
F1
ssg302
(dp3827
g304
F1
ssg305
(dp3828
g307
F1
ssg308
(dp3829
g310
F1
sg311
F3
ssg312
(dp3830
g311
F3
ssg242
(dp3831
g244
F1
sg245
F1
ssg322
(dp3832
g324
F1
ssg325
(dp3833
g327
F1
sg328
F1
sg174
F2
ssg329
(dp3834
g49
F4
ssg331
(dp3835
g333
F1
ssg334
(dp3836
sg339
(dp3837
g341
F2
ssg342
(dp3838
g344
F2
ssg345
(dp3839
g347
F2
ssg348
(dp3840
g350
F1
ssg2803
(dp3841
g95
F1
sg96
F1
sg97
F1
ssg2805
(dp3842
g502
F1
ssg351
(dp3843
g353
F9
ssg481
(dp3844
g483
F3
ssg357
(dp3845
g359
F1
ssg364
(dp3846
g366
F1
ssg370
(dp3847
g54
F5
ssg937
(dp3848
g939
F2
ssg375
(dp3849
g377
F1
ssg378
(dp3850
g380
F1
ssg381
(dp3851
g383
F1
ssg384
(dp3852
g386
F1
sg387
F1
ssg388
(dp3853
g186
F7
ssg390
(dp3854
g392
F1
ssg393
(dp3855
sg943
(dp3856
g945
F1
ssg397
(dp3857
g399
F1
ssg400
(dp3858
g402
F1
sg403
F2
ssg404
(dp3859
g406
F1
ssg977
(dp3860
g979
F2
ssg410
(dp3861
g412
F1
ssg413
(dp3862
g415
F1
sg416
F1
ssg417
(dp3863
g419
F2
ssg420
(dp3864
g70
F6
sg422
F2
sg423
F6
ssg424
(dp3865
g426
F1
ssg427
(dp3866
g429
F1
sg430
F1
ssg431
(dp3867
g433
F1
sg434
F1
ssg435
(dp3868
g437
F1
ssg441
(dp3869
g419
F2
ssg443
(dp3870
g445
F2
sg446
F2
ssg447
(dp3871
g449
F1
sg177
F5
sg178
F5
ssg450
(dp3872
g452
F2
ssg453
(dp3873
g445
F2
sg446
F2
ssg455
(dp3874
g457
F1
ssg458
(dp3875
g460
F1
ssg461
(dp3876
g463
F1
ssg464
(dp3877
g466
F1
ssg467
(dp3878
g89
F25
sg90
F25
sg91
F25
sg92
F25
ssg469
(dp3879
g471
F1
ssg472
(dp3880
g474
F1
ssg475
(dp3881
g477
F1
ssg478
(dp3882
g480
F1
ssg1377
(dp3883
g1376
F2
ssg354
(dp3884
g356
F1
ssg484
(dp3885
g486
F1
ssg490
(dp3886
g166
F2
sg492
F2
ssg2855
(dp3887
sg495
(dp3888
g497
F1
ssg498
(dp3889
g89
F25
sg90
F25
sg91
F25
sg92
F25
ssg1259
(dp3890
g1261
F1
ssg503
(dp3891
g505
F1
ssg506
(dp3892
g508
F1
ssg509
(dp3893
g511
F1
sg512
F2
ssg513
(dp3894
g515
F2
ssg516
(dp3895
g515
F2
ssg522
(dp3896
g524
F1
sg525
F1
ssg528
(dp3897
g530
F1
sg531
F1
sg532
F1
sg533
F1
sg534
F1
sg535
F1
sg536
F1
sg537
F1
sg538
F1
ssg539
(dp3898
sg541
(dp3899
g543
F2
sg544
F2
sg545
F2
ssg546
(dp3900
g89
F25
sg90
F25
sg92
F25
sg91
F25
ssg548
(dp3901
g550
F2
ssg551
(dp3902
g550
F2
ssg553
(dp3903
g555
F1
ssg556
(dp3904
g558
F1
ssg559
(dp3905
sg561
(dp3906
g563
F1
ssg564
(dp3907
g566
F1
sg567
F1
sg568
F1
ssg569
(dp3908
g571
F1
ssg2879
(dp3909
sg572
(dp3910
g574
F1
ssg575
(dp3911
g89
F25
sg90
F25
sg92
F25
sg91
F25
ssg577
(dp3912
g579
F1
ssg580
(dp3913
g582
F1
sg583
F3
ssg584
(dp3914
g311
F3
ssg586
(dp3915
g54
F5
ssg588
(dp3916
g590
F2
ssg594
(dp3917
g186
F7
ssg596
(dp3918
sg598
(dp3919
g276
F15
sg277
F14
ssg600
(dp3920
g602
F1
ssg603
(dp3921
g276
F15
sg277
F14
ssg605
(dp3922
g276
F15
sg277
F14
ssg274
(dp3923
g276
F15
sg277
F14
ssg614
(dp3924
g616
F1
ssg617
(dp3925
g276
F15
sg277
F14
ssg619
(dp3926
g276
F15
sg277
F14
ssg621
(dp3927
g583
F3
ssg623
(dp3928
g31
F7
sg32
F7
ssg630
(dp3929
g632
F2
sg633
F2
sg634
F1
sg635
F1
ssg109
(dp3930
g111
F2
ssg638
(dp3931
g640
F1
sg641
F1
sg642
F1
sg643
F1
ssg649
(dp3932
sg651
(dp3933
g653
F1
ssg654
(dp3934
g656
F1
ssg657
(dp3935
sg659
(dp3936
g661
F1
ssg662
(dp3937
g664
F1
ssg665
(dp3938
g667
F1
ssg668
(dp3939
g670
F1
ssg671
(dp3940
g673
F2
ssg674
(dp3941
g676
F1
ssg677
(dp3942
g679
F1
sg680
F1
ssS'GLYAT_reverse'
p3943
(dp3944
S'b3617'
p3945
F1
ssg681
(dp3946
sg683
(dp3947
g685
F2
ssg686
(dp3948
g89
F25
sg90
F25
sg91
F25
sg92
F25
ssg688
(dp3949
g89
F25
sg90
F25
sg92
F25
sg91
F25
ssg690
(dp3950
g692
F1
ssg696
(dp3951
g69
F2
sg698
F1
ssg699
(dp3952
g701
F1
ssg702
(dp3953
g704
F2
ssg705
(dp3954
g707
F1
sg632
F2
sg633
F2
sg708
F1
ssg709
(dp3955
g711
F1
ssg712
(dp3956
g704
F2
ssg714
(dp3957
g716
F1
sg717
F1
sg718
F2
ssg719
(dp3958
g721
F1
ssg722
(dp3959
g724
F1
ssg725
(dp3960
g727
F7
sg728
F1
ssg407
(dp3961
g409
F1
ssg732
(dp3962
g70
F6
sg423
F6
ssg734
(dp3963
g423
F6
sg70
F6
sg422
F2
ssg736
(dp3964
g738
F2
ssg739
(dp3965
g741
F2
sg423
F6
ssg746
(dp3966
g51
F3
ssg748
(dp3967
g118
F2
ssg2941
(dp3968
g353
F9
ssg750
(dp3969
g752
F1
sg753
F1
sg754
F1
sg755
F1
ssg756
(dp3970
g741
F2
sg423
F6
ssg758
(dp3971
g423
F6
ssg760
(dp3972
g341
F2
ssg762
(dp3973
g764
F1
ssg765
(dp3974
g512
F2
ssg767
(dp3975
g483
F3
ssg769
(dp3976
sg774
(dp3977
g776
F2
sg777
F2
sg778
F2
sg779
F2
sg780
F2
sg781
F2
sg782
F2
sg783
F2
sg784
F2
sg785
F2
sg786
F2
sg787
F2
sg788
F2
ssg789
(dp3978
sg2953
(dp3979
g86
F2
ssg791
(dp3980
g793
F1
sg794
F1
ssg795
(dp3981
g186
F7
ssg797
(dp3982
g799
F1
ssg800
(dp3983
g186
F7
ssg802
(dp3984
g804
F6
sg353
F9
ssg805
(dp3985
g804
F6
sg353
F9
ssg807
(dp3986
g804
F6
sg353
F9
ssg175
(dp3987
g177
F5
sg178
F5
sg179
F1
ssg1780
(dp3988
g804
F6
sg353
F9
ssg811
(dp3989
g804
F6
sg353
F9
ssg813
(dp3990
g804
F6
sg353
F9
ssg815
(dp3991
g727
F7
sg817
F1
ssg818
(dp3992
g820
F1
ssg821
(dp3993
g823
F1
sg31
F7
sg32
F7
ssg824
(dp3994
g826
F1
ssg827
(dp3995
g829
F3
ssg830
(dp3996
g727
F7
sg832
F3
ssg1797
(dp3997
g1451
F1
ssg833
(dp3998
g727
F7
sg832
F3
ssg835
(dp3999
g837
F1
ssg838
(dp4000
g840
F1
ssg841
(dp4001
g727
F7
sg832
F3
ssg843
(dp4002
g89
F25
sg90
F25
sg92
F25
sg91
F25
ssg849
(dp4003
g851
F1
ssg852
(dp4004
g583
F3
ssg860
(dp4005
g89
F25
sg90
F25
sg92
F25
sg91
F25
ssg862
(dp4006
g864
F1
sg865
F1
ssg866
(dp4007
g727
F7
sg868
F2
ssg869
(dp4008
g727
F7
sg868
F2
ssg871
(dp4009
g60
F5
sg873
F1
sg61
F5
ssg876
(dp4010
g878
F1
sg879
F1
sg880
F1
sg881
F1
ssg1813
(dp4011
g718
F2
sg1815
F1
sg1816
F1
ssg884
(dp4012
g886
F2
ssg887
(dp4013
sg889
(dp4014
g891
F1
ssg892
(dp4015
g894
F1
ssg897
(dp4016
g899
F1
ssg900
(dp4017
g902
F1
ssg903
(dp4018
g905
F1
ssg906
(dp4019
g908
F1
ssS'THRD'
p4020
(dp4021
S'b3616'
p4022
F1
ssg909
(dp4023
g911
F2
ssg912
(dp4024
sg914
(dp4025
g916
F1
ssg917
(dp4026
g919
F1
sg920
F1
ssg921
(dp4027
g923
F1
ssg924
(dp4028
g926
F1
ssg927
(dp4029
g929
F1
ssg930
(dp4030
g276
F15
ssg934
(dp4031
g936
F1
ssg372
(dp4032
g374
F1
ssg940
(dp4033
g942
F1
ssg1837
(dp4034
g1076
F1
ssg946
(dp4035
sg948
(dp4036
g89
F25
sg90
F25
sg91
F25
sg92
F25
ssg950
(dp4037
g952
F1
sg953
F1
sg954
F1
sg955
F1
sg956
F1
sg957
F1
ssg958
(dp4038
sg960
(dp4039
g939
F2
ssg962
(dp4040
g964
F1
sg965
F1
ssg968
(dp4041
g970
F1
ssg971
(dp4042
g973
F1
ssg980
(dp4043
sg982
(dp4044
g673
F2
ssg1854
(dp4045
g17
F1
ssg984
(dp4046
g986
F1
ssg987
(dp4047
g989
F1
sg990
F1
sg991
F1
ssg1861
(dp4048
g1434
F2
ssg992
(dp4049
g994
F1
ssg995
(dp4050
g997
F1
ssg998
(dp4051
g31
F7
sg32
F7
ssg1000
(dp4052
g1002
F1
sg1003
F1
ssg2487
(dp4053
g57
F2
sg58
F3
sg59
F2
sg60
F5
sg61
F5
ssg1004
(dp4054
g89
F25
sg90
F25
sg91
F25
sg92
F25
ssg1006
(dp4055
g829
F3
ssg1008
(dp4056
g829
F3
ssg3032
(dp4057
sg1010
(dp4058
g54
F5
ssg1012
(dp4059
g1014
F2
ssg1015
(dp4060
g1017
F2
sg1018
F1
ssg1019
(dp4061
g1021
F1
ssg1022
(dp4062
g1024
F1
ssg1025
(dp4063
g276
F15
sg277
F14
ssg1027
(dp4064
g276
F15
sg277
F14
ssg1029
(dp4065
g276
F15
sg277
F14
ssg1031
(dp4066
g276
F15
sg277
F14
ssg1033
(dp4067
g276
F15
sg277
F14
ssg1035
(dp4068
g911
F2
ssg1037
(dp4069
g276
F15
sg277
F14
ssg1039
(dp4070
g1041
F2
ssg1042
(dp4071
g1044
F1
sg1041
F2
ssg3052
(dp4072
g593
F1
ssg1048
(dp4073
g1050
F1
ssg1051
(dp4074
g1053
F1
ssg1054
(dp4075
g1056
F1
ssg1057
(dp4076
g1059
F2
ssg1060
(dp4077
g1062
F1
ssg1063
(dp4078
g1065
F1
sg1066
F1
ssg1067
(dp4079
g1069
F1
ssg1070
(dp4080
g1072
F1
ssg1079
(dp4081
g1081
F1
sg1082
F1
ssg1083
(dp4082
g1085
F1
ssg1086
(dp4083
g1088
F1
ssg1089
(dp4084
g1091
F1
ssg1092
(dp4085
g237
F2
sg238
F2
ssg1094
(dp4086
g102
F2
ssg1096
(dp4087
g776
F2
sg777
F2
sg778
F2
sg785
F2
sg780
F2
sg781
F2
sg782
F2
sg783
F2
sg784
F2
sg786
F2
sg779
F2
sg787
F2
sg788
F2
ssg1098
(dp4088
g1100
F1
ssg1101
(dp4089
g483
F3
ssg1103
(dp4090
g1105
F1
ssg1106
(dp4091
sg1108
(dp4092
g1110
F1
ssg1111
(dp4093
g1113
F1
ssg1114
(dp4094
g1116
F1
ssg1117
(dp4095
g1119
F1
sg1120
F1
ssg1121
(dp4096
g1123
F1
ssg1124
(dp4097
g1126
F1
ssg1130
(dp4098
g1132
F1
ssg1133
(dp4099
g1135
F1
ssg1136
(dp4100
g1138
F1
ssg1139
(dp4101
sg1141
(dp4102
g276
F15
sg277
F14
ssg1143
(dp4103
g1145
F1
sg1146
F1
ssg1150
(dp4104
g1152
F1
ssg1153
(dp4105
g49
F4
ssg1155
(dp4106
g31
F7
sg32
F7
ssg1157
(dp4107
g1159
F1
ssg1160
(dp4108
g186
F7
ssg1162
(dp4109
g1164
F1
ssg1165
(dp4110
g89
F25
sg90
F25
sg91
F25
sg92
F25
ssg1167
(dp4111
g1169
F1
ssg1170
(dp4112
g1172
F1
ssg1045
(dp4113
g1047
F1
ssg1173
(dp4114
sg1175
(dp4115
g1177
F1
sg1178
F1
ssg1179
(dp4116
sg493
(dp4117
g166
F2
sg492
F2
ssg1184
(dp4118
g1186
F1
ssg1190
(dp4119
sg1192
(dp4120
g89
F25
sg90
F25
sg91
F25
sg92
F25
ssg1194
(dp4121
g89
F25
sg90
F25
sg92
F25
sg91
F25
ssg1196
(dp4122
g1198
F2
ssg1199
(dp4123
g979
F2
ssg1201
(dp4124
g1203
F1
sg1204
F1
ssg1205
(dp4125
g1207
F2
ssg1208
(dp4126
g1210
F1
sg1211
F1
sg70
F6
sg1212
F1
sg1213
F1
ssg1214
(dp4127
g1216
F1
ssg1217
(dp4128
sg1219
(dp4129
g1221
F1
ssg1222
(dp4130
g1224
F1
ssg1237
(dp4131
g1239
F1
sg1240
F1
ssg1245
(dp4132
g590
F2
ssg1247
(dp4133
g1249
F1
ssg1250
(dp4134
g1252
F1
sg1253
F1
sg1254
F1
sg1255
F1
ssg1256
(dp4135
g1258
F1
ssg1262
(dp4136
g89
F25
sg90
F25
sg91
F25
sg92
F25
ssg1264
(dp4137
g452
F2
ssg1266
(dp4138
g1198
F2
ssg1268
(dp4139
sg1270
(dp4140
g1272
F1
ssg1278
(dp4141
g1280
F2
sg1281
F2
ssg1282
(dp4142
g1280
F2
sg1281
F2
ssg1284
(dp4143
g1286
F1
ssg1287
(dp4144
sg1289
(dp4145
g1207
F2
ssg1971
(dp4146
g403
F2
ssg1974
(dp4147
g1293
F3
sg1294
F3
sg177
F5
sg178
F5
ssg1295
(dp4148
g1293
F3
sg1294
F3
sg177
F5
sg178
F5
ssg3144
(dp4149
g1293
F3
sg1294
F3
sg177
F5
sg178
F5
ssg1297
(dp4150
g1299
F1
ssg1300
(dp4151
g1302
F1
ssg1303
(dp4152
g1305
F1
ssg1306
(dp4153
g155
F3
ssg1308
(dp4154
g89
F25
sg90
F25
sg91
F25
sg92
F25
ssg1310
(dp4155
g1312
F1
sg60
F5
sg61
F5
ssg1313
(dp4156
g1315
F1
ssg1320
(dp4157
g1322
F1
ssS'ACALD'
p4158
(dp4159
g1183
F1
sg628
F1
ssg1323
(dp4160
g121
F2
ssS'ACt2rpp'
p4161
(dp4162
sg1325
(dp4163
g1327
F1
ssg1328
(dp4164
g1330
F1
sg1331
F1
ssg1332
(dp4165
g1334
F1
ssg1338
(dp4166
g353
F9
ssg1340
(dp4167
g1342
F1
ssg1343
(dp4168
g543
F2
sg544
F2
sg545
F2
ssg1345
(dp4169
g1347
F1
ssg1348
(dp4170
g347
F2
sg158
F2
ssS'ACt4pp'
p4171
(dp4172
g1860
F1
ssg1350
(dp4173
g89
F25
sg90
F25
sg92
F25
sg91
F25
ssg1352
(dp4174
g1354
F1
sg1355
F1
sg1356
F1
sg1357
F1
sg1358
F1
ssg395
(dp4175
g70
F6
ssg1361
(dp4176
sg1363
(dp4177
g1365
F1
sg1366
F1
ssg1367
(dp4178
sg1369
(dp4179
g1371
F1
sg227
F2
ssg1372
(dp4180
g1017
F2
ssg1374
(dp4181
g1376
F2
ssg3179
(dp4182
g89
F25
sg90
F25
sg91
F25
sg92
F25
ssg1379
(dp4183
g1381
F1
sg1382
F1
ssg1383
(dp4184
sg1385
(dp4185
g1387
F1
ssg1388
(dp4186
g89
F25
sg90
F25
sg92
F25
sg91
F25
ssg2627
(dp4187
g2629
F1
ssg1394
(dp4188
g1014
F2
ssg1396
(dp4189
g28
F2
ssg1398
(dp4190
g58
F3
sg60
F5
sg61
F5
ssg1400
(dp4191
g1402
F1
sg1403
F1
ssg1407
(dp4192
g1409
F1
ssg3190
(dp4193
g89
F25
sg90
F25
sg91
F25
sg92
F25
ssg1410
(dp4194
g1412
F1
ssg1413
(dp4195
g89
F25
sg90
F25
sg91
F25
sg92
F25
ssg1415
(dp4196
g1417
F1
ssg1418
(dp4197
g31
F7
sg32
F7
ssg1420
(dp4198
g1059
F2
ssg2017
(dp4199
g2019
F1
sg2020
F1
sg2021
F1
ssg1426
(dp4200
g54
F5
sg738
F2
ssg1428
(dp4201
g1430
F1
sg1431
F1
ssg1437
(dp4202
g1439
F1
sg1440
F1
sg1441
F1
sg1442
F1
sg1443
F1
ssg1444
(dp4203
g1446
F1
ssg1447
(dp4204
g886
F2
ssg1077
(dp4205
g51
F3
sg50
F3
ssg1453
(dp4206
g1455
F1
sg1456
F1
ssS'CPPPGO'
p4207
(dp4208
S'b2436'
p4209
F1
ssg1457
(dp4210
g1459
F1
ssg729
(dp4211
g731
F1
ssg1460
(dp4212
g344
F2
ssg1465
(dp4213
sS'OAADC'
p4214
(dp4215
g287
F2
ssg1470
(dp4216
g186
F7
ssg3211
(dp4217
g489
F1
ssg1474
(dp4218
g1476
F1
sg1477
F1
sg1478
F1
sg1479
F1
sg1480
F1
sg1481
F1
sg1482
F1
sg1483
F1
ssg3214
(dp4219
g2042
F1
sg2043
F1
ssg1484
(dp4220
g1486
F1
ssg3728
(dp4221
sg1487
(dp4222
g1489
F1
ssg1490
(dp4223
g1492
F1
ssg1493
(dp4224
g1495
F1
sg1496
F1
ssg1497
(dp4225
g1499
F1
ssg1500
(dp4226
g89
F25
sg90
F25
sg91
F25
sg92
F25
ssg1502
(dp4227
g1504
F1
sg1505
F1
sg1506
F1
sg1507
F1
sg1508
F1
sg1509
F1
ssg1510
(dp4228
g1512
F1
ssg1513
(dp4229
g161
F2
ssg1515
(dp4230
g1517
F1
ssg1518
(dp4231
ssS'GLC_BATCH_mu=0.58_S'
p4232
(dp4233
g4
(dp4234
g6
F1
ssg9
(dp4235
g11
F1
ssg12
(dp4236
g14
F1
ssg15
(dp4237
g17
F1
ssg18
(dp4238
g20
F1
sg21
F1
sg22
F1
ssg23
(dp4239
g25
F1
ssg26
(dp4240
g28
F2
ssg29
(dp4241
g31
F7
sg32
F7
ssg33
(dp4242
g35
F1
ssg36
(dp4243
g38
F1
ssg39
(dp4244
sg41
(dp4245
g43
F1
ssg44
(dp4246
g46
F1
ssg47
(dp4247
g49
F4
sg50
F3
sg51
F3
ssg52
(dp4248
g54
F5
ssg55
(dp4249
g57
F3
sg58
F4
sg59
F3
sg60
F6
sg61
F6
ssg62
(dp4250
sg64
(dp4251
g66
F1
ssg67
(dp4252
g69
F2
sg70
F6
ssg71
(dp4253
g31
F7
sg32
F7
ssg77
(dp4254
g79
F1
ssg80
(dp4255
g82
F1
ssg83
(dp4256
g85
F1
sg86
F2
ssg93
(dp4257
g95
F1
sg96
F1
sg97
F1
ssg98
(dp4258
sg100
(dp4259
g102
F2
ssg103
(dp4260
g105
F2
sg106
F2
sg107
F2
sg108
F2
ssg109
(dp4261
g111
F2
ssg112
(dp4262
g114
F1
ssg115
(dp4263
g117
F1
sg118
F2
ssg119
(dp4264
g121
F2
ssg122
(dp4265
sg124
(dp4266
g89
F26
sg90
F26
sg92
F26
sg91
F26
ssg126
(dp4267
sg128
(dp4268
sg130
(dp4269
g132
F1
ssg133
(dp4270
g111
F2
ssg135
(dp4271
g137
F1
ssg138
(dp4272
g140
F1
sg141
F1
sg142
F1
sg143
F1
ssg144
(dp4273
g146
F1
sg147
F1
ssg153
(dp4274
g155
F3
ssg156
(dp4275
g158
F2
ssg159
(dp4276
g161
F2
ssg162
(dp4277
sg164
(dp4278
g166
F3
ssg167
(dp4279
g169
F1
ssg170
(dp4280
g105
F2
sg106
F2
sg107
F2
sg108
F2
ssg172
(dp4281
g174
F2
ssg1571
(dp4282
g1573
F1
ssg180
(dp4283
g182
F1
sg183
F1
ssg184
(dp4284
g186
F7
ssg187
(dp4285
g189
F1
ssg190
(dp4286
g192
F1
sg193
F1
ssg194
(dp4287
g49
F4
sg50
F3
ssg196
(dp4288
g198
F1
sg199
F1
ssg200
(dp4289
sg202
(dp4290
g204
F1
ssg205
(dp4291
g207
F1
sg208
F1
ssg209
(dp4292
g155
F3
ssg1585
(dp4293
g1587
F1
ssg213
(dp4294
g215
F1
ssg216
(dp4295
g218
F1
ssg219
(dp4296
g221
F1
ssg222
(dp4297
g224
F1
ssg225
(dp4298
g227
F2
ssg1369
(dp4299
g1371
F1
sg227
F2
ssg231
(dp4300
g233
F1
ssg234
(dp4301
g236
F1
sg237
F2
sg238
F2
ssg239
(dp4302
g241
F1
ssg2109
(dp4303
g1119
F1
sg1120
F1
ssg246
(dp4304
g248
F2
sg249
F2
ssg250
(dp4305
sg252
(dp4306
sg254
(dp4307
g256
F1
ssg257
(dp4308
g259
F1
sg260
F1
ssg261
(dp4309
g248
F2
sg249
F2
ssg263
(dp4310
g265
F1
ssg266
(dp4311
g268
F1
sg269
F1
sg270
F1
ssg271
(dp4312
g273
F1
ssg2170
(dp4313
sg278
(dp4314
g280
F2
ssg281
(dp4315
g280
F2
ssg283
(dp4316
g276
F15
sg277
F14
ssg285
(dp4317
g287
F1
ssg73
(dp4318
g75
F1
sg76
F1
ssg291
(dp4319
g89
F26
sg90
F26
sg91
F26
sg92
F26
ssg293
(dp4320
g295
F1
ssg296
(dp4321
g298
F1
ssg1615
(dp4322
g1617
F1
ssg299
(dp4323
g301
F1
ssg302
(dp4324
g304
F1
ssg305
(dp4325
g307
F1
ssg1250
(dp4326
g1252
F1
sg1253
F1
sg1254
F1
sg1255
F1
ssg308
(dp4327
g310
F1
sg311
F3
ssg312
(dp4328
g311
F3
ssg242
(dp4329
g244
F1
sg245
F1
ssg322
(dp4330
g324
F1
ssg329
(dp4331
g49
F4
ssg331
(dp4332
g333
F1
ssg334
(dp4333
sS'HEX1'
p4334
(dp4335
S'b2388'
p4336
F1
ssg339
(dp4337
g341
F2
ssg342
(dp4338
g344
F2
ssg345
(dp4339
g347
F2
ssg348
(dp4340
g350
F1
ssg351
(dp4341
g353
F8
ssg354
(dp4342
g356
F1
ssg357
(dp4343
g359
F1
ssg2221
(dp4344
g327
F1
sg328
F1
sg174
F2
ssg364
(dp4345
g366
F1
ssg367
(dp4346
g369
F1
ssg370
(dp4347
g54
F5
ssg1639
(dp4348
g1641
F3
sg685
F4
ssg372
(dp4349
g374
F1
ssg375
(dp4350
g377
F1
ssg378
(dp4351
g380
F1
ssg381
(dp4352
g383
F1
ssg384
(dp4353
g386
F1
sg387
F1
ssS'DHORD2'
p4354
(dp4355
S'b0945'
p4356
F1
ssg390
(dp4357
g392
F1
ssg393
(dp4358
sg2238
(dp4359
sg400
(dp4360
g402
F1
sg403
F2
ssg404
(dp4361
g406
F1
ssg407
(dp4362
g409
F1
ssg410
(dp4363
g412
F1
ssg413
(dp4364
g415
F1
sg416
F1
ssg417
(dp4365
g419
F2
ssg420
(dp4366
g70
F6
sg422
F2
sg423
F6
ssg424
(dp4367
g426
F1
ssg427
(dp4368
g429
F1
sg430
F1
ssg431
(dp4369
g433
F1
sg434
F1
ssg435
(dp4370
g437
F1
ssg441
(dp4371
g419
F2
ssg443
(dp4372
g445
F2
sg446
F2
ssg447
(dp4373
g449
F1
sg177
F5
sg178
F5
ssg450
(dp4374
g452
F2
ssg453
(dp4375
g445
F2
sg446
F2
ssg455
(dp4376
g457
F1
ssg458
(dp4377
g460
F1
ssg461
(dp4378
g463
F1
ssg464
(dp4379
g466
F1
ssg467
(dp4380
g89
F26
sg90
F26
sg91
F26
sg92
F26
ssg469
(dp4381
g471
F1
ssg472
(dp4382
g474
F1
ssg475
(dp4383
g477
F1
ssg478
(dp4384
g480
F1
ssg481
(dp4385
g483
F3
ssg484
(dp4386
g486
F1
ssg487
(dp4387
g489
F1
ssg490
(dp4388
g166
F3
sg492
F2
ssg360
(dp4389
g362
F1
sg363
F1
ssg493
(dp4390
g166
F3
sg492
F2
ssg495
(dp4391
g497
F1
ssg498
(dp4392
g89
F26
sg90
F26
sg91
F26
sg92
F26
ssg500
(dp4393
g502
F1
ssg503
(dp4394
g505
F1
ssS'GLCptspp'
p4395
(dp4396
g2113
F1
sg1354
F2
sS'b2417'
p4397
F1
sg1356
F2
sg2114
F1
sg2115
F1
sS'b1101'
p4398
F1
sS'b1621'
p4399
F1
ssg506
(dp4400
g508
F1
ssg509
(dp4401
g511
F1
sg512
F2
ssg513
(dp4402
g515
F2
ssg516
(dp4403
g515
F2
ssg518
(dp4404
g520
F1
sg521
F1
ssg522
(dp4405
g524
F1
sg525
F1
ssg526
(dp4406
g89
F26
sg90
F26
sg91
F26
sg92
F26
ssg528
(dp4407
g530
F1
sg531
F1
sg532
F1
sg533
F1
sg534
F1
sg535
F1
sg536
F1
sg537
F1
sg538
F1
ssg539
(dp4408
sg541
(dp4409
g543
F2
sg544
F2
sg545
F2
ssg546
(dp4410
g89
F26
sg90
F26
sg92
F26
sg91
F26
ssg548
(dp4411
g550
F2
ssg551
(dp4412
g550
F2
ssg553
(dp4413
g555
F1
ssg556
(dp4414
g558
F1
ssg559
(dp4415
sg561
(dp4416
g563
F1
ssg564
(dp4417
g566
F1
sg567
F1
sg568
F1
ssg569
(dp4418
g571
F1
ssg572
(dp4419
g574
F1
ssg575
(dp4420
g89
F26
sg90
F26
sg92
F26
sg91
F26
ssg577
(dp4421
g579
F1
ssg580
(dp4422
g582
F1
sg583
F3
ssg584
(dp4423
g311
F3
ssg586
(dp4424
g54
F5
ssg588
(dp4425
g590
F2
ssg388
(dp4426
g186
F7
ssg591
(dp4427
g593
F1
ssg594
(dp4428
g186
F7
ssg596
(dp4429
sg598
(dp4430
g276
F15
sg277
F14
ssg600
(dp4431
g602
F1
ssg603
(dp4432
g276
F15
sg277
F14
ssg605
(dp4433
g276
F15
sg277
F14
ssg274
(dp4434
g276
F15
sg277
F14
ssg614
(dp4435
g616
F1
ssg617
(dp4436
g276
F15
sg277
F14
ssg619
(dp4437
g276
F15
sg277
F14
ssg621
(dp4438
g583
F3
ssg623
(dp4439
g31
F7
sg32
F7
ssg625
(dp4440
g627
F1
sg628
F2
sg629
F1
ssg630
(dp4441
g632
F2
sg633
F2
sg634
F1
sg635
F1
ssg636
(dp4442
sg397
(dp4443
g399
F1
ssg644
(dp4444
g646
F1
sg647
F1
sg648
F1
ssg649
(dp4445
sg651
(dp4446
g653
F1
ssg654
(dp4447
g656
F1
ssg657
(dp4448
sg659
(dp4449
g661
F1
ssg662
(dp4450
g664
F1
ssg665
(dp4451
g667
F1
ssg668
(dp4452
g670
F1
ssg671
(dp4453
g673
F2
ssg674
(dp4454
g676
F1
ssg677
(dp4455
g679
F1
sg680
F1
ssg681
(dp4456
sg683
(dp4457
g685
F4
ssg686
(dp4458
g89
F26
sg90
F26
sg91
F26
sg92
F26
ssg688
(dp4459
g89
F26
sg90
F26
sg92
F26
sg91
F26
ssS'GLCt2pp'
p4460
(dp4461
g440
F1
ssg690
(dp4462
g692
F1
ssg693
(dp4463
g695
F1
ssg696
(dp4464
g69
F2
sg698
F1
ssg699
(dp4465
g701
F1
ssg702
(dp4466
g704
F2
ssg705
(dp4467
g707
F1
sg632
F2
sg633
F2
sg708
F1
ssg709
(dp4468
g711
F1
ssg712
(dp4469
g704
F2
ssg714
(dp4470
g716
F1
sg717
F1
sg718
F1
ssg719
(dp4471
g721
F1
ssg722
(dp4472
g724
F1
ssg725
(dp4473
g727
F7
sg728
F1
ssg729
(dp4474
g731
F1
ssg732
(dp4475
g70
F6
sg423
F6
ssg734
(dp4476
g423
F6
sg70
F6
sg422
F2
ssg736
(dp4477
g738
F2
ssg739
(dp4478
g741
F2
sg423
F6
ssg742
(dp4479
g744
F1
sg745
F1
ssg746
(dp4480
g51
F3
ssg748
(dp4481
g118
F2
ssg2941
(dp4482
g353
F8
ssg750
(dp4483
g752
F1
sg753
F1
sg754
F1
sg755
F1
ssg756
(dp4484
g741
F2
sg423
F6
ssg758
(dp4485
g423
F6
ssg760
(dp4486
g341
F2
ssg762
(dp4487
g764
F1
ssg1765
(dp4488
g230
F1
ssg765
(dp4489
g512
F2
ssg767
(dp4490
g483
F3
ssg769
(dp4491
sg789
(dp4492
sg791
(dp4493
g793
F1
sg794
F1
ssg795
(dp4494
g186
F7
ssg797
(dp4495
g799
F1
ssg800
(dp4496
g186
F7
ssg802
(dp4497
g804
F5
sg353
F8
ssg805
(dp4498
g804
F5
sg353
F8
ssg807
(dp4499
g804
F5
sg353
F8
ssg175
(dp4500
g177
F5
sg178
F5
sg179
F1
ssg1780
(dp4501
g804
F5
sg353
F8
ssg811
(dp4502
g804
F5
sg353
F8
ssg815
(dp4503
g727
F7
sg817
F1
ssg818
(dp4504
g820
F1
ssg821
(dp4505
g823
F1
sg31
F7
sg32
F7
ssg824
(dp4506
g826
F1
ssg827
(dp4507
g829
F3
ssg830
(dp4508
g727
F7
sg832
F3
ssg1797
(dp4509
g1451
F2
ssg833
(dp4510
g727
F7
sg832
F3
ssg835
(dp4511
g837
F1
ssS'GLCtex'
p4512
(dp4513
g89
F26
sg90
F26
sg92
F26
sg91
F26
ssg838
(dp4514
g840
F1
ssg841
(dp4515
g727
F7
sg832
F3
ssg843
(dp4516
g89
F26
sg90
F26
sg92
F26
sg91
F26
ssg849
(dp4517
g851
F1
ssg852
(dp4518
g583
F3
ssS'XYLI2_reverse'
p4519
(dp4520
g976
F1
ssg860
(dp4521
g89
F26
sg90
F26
sg92
F26
sg91
F26
ssg862
(dp4522
g864
F1
sg865
F1
ssg866
(dp4523
g727
F7
sg868
F2
ssg869
(dp4524
g727
F7
sg868
F2
ssg871
(dp4525
g60
F6
sg873
F1
sg61
F6
ssg876
(dp4526
g878
F1
sg879
F1
sg880
F1
sg881
F1
ssg2985
(dp4527
g1076
F2
ssg884
(dp4528
g886
F2
ssg887
(dp4529
sg889
(dp4530
g891
F1
ssg892
(dp4531
g894
F1
ssg895
(dp4532
g89
F26
sg90
F26
sg91
F26
sg92
F26
ssg897
(dp4533
g899
F1
ssg900
(dp4534
g902
F1
ssg903
(dp4535
g905
F1
ssg906
(dp4536
g908
F1
ssg909
(dp4537
g911
F2
ssg912
(dp4538
sg914
(dp4539
g916
F1
ssg917
(dp4540
g919
F1
sg920
F1
ssg921
(dp4541
g923
F1
ssg924
(dp4542
g926
F1
ssg927
(dp4543
g929
F1
ssg930
(dp4544
g276
F15
ssg932
(dp4545
g86
F2
ssg934
(dp4546
g936
F1
ssg937
(dp4547
g939
F2
ssg940
(dp4548
g942
F1
ssg943
(dp4549
g945
F1
ssg946
(dp4550
sg948
(dp4551
g89
F26
sg90
F26
sg91
F26
sg92
F26
ssg950
(dp4552
g952
F1
sg953
F1
sg954
F1
sg955
F1
sg956
F1
sg957
F1
ssg958
(dp4553
sg960
(dp4554
g939
F2
ssg962
(dp4555
g964
F1
sg965
F1
ssg2472
(dp4556
g89
F26
sg90
F26
sg92
F26
sg91
F26
ssg968
(dp4557
g970
F1
ssg971
(dp4558
g973
F1
ssg977
(dp4559
g979
F2
ssg980
(dp4560
sg982
(dp4561
g673
F2
ssg984
(dp4562
g986
F1
ssg987
(dp4563
g989
F1
sg990
F1
sg991
F1
ssg1861
(dp4564
g1434
F2
ssg992
(dp4565
g994
F1
ssg995
(dp4566
g997
F2
ssg998
(dp4567
g31
F7
sg32
F7
ssg1000
(dp4568
g1002
F1
sg1003
F1
ssg2487
(dp4569
g57
F3
sg58
F4
sg59
F3
sg60
F6
sg61
F6
ssg1004
(dp4570
g89
F26
sg90
F26
sg91
F26
sg92
F26
ssg1006
(dp4571
g829
F3
ssg1008
(dp4572
g829
F3
ssg1010
(dp4573
g54
F5
ssg1012
(dp4574
g1014
F2
ssg1015
(dp4575
g1017
F2
sg1018
F1
ssg1019
(dp4576
g1021
F1
ssg1022
(dp4577
g1024
F1
ssg1025
(dp4578
g276
F15
sg277
F14
ssg1027
(dp4579
g276
F15
sg277
F14
ssg1029
(dp4580
g276
F15
sg277
F14
ssg1031
(dp4581
g276
F15
sg277
F14
ssg1033
(dp4582
g276
F15
sg277
F14
ssg1035
(dp4583
g911
F2
ssg1037
(dp4584
g276
F15
sg277
F14
ssg1039
(dp4585
g1041
F2
ssg1042
(dp4586
g1044
F1
sg1041
F2
ssg1045
(dp4587
g1047
F1
ssg1048
(dp4588
g1050
F1
ssg1051
(dp4589
g1053
F1
ssg1054
(dp4590
g1056
F1
ssg1060
(dp4591
g1062
F1
ssg1063
(dp4592
g1065
F1
sg1066
F1
ssg1067
(dp4593
g1069
F1
ssg1070
(dp4594
g1072
F1
ssg1073
(dp4595
g1075
F1
sg1076
F2
ssg1077
(dp4596
g51
F3
sg50
F3
ssg1079
(dp4597
g1081
F1
sg1082
F1
ssg1083
(dp4598
g1085
F2
ssg1086
(dp4599
g1088
F1
ssg1089
(dp4600
g1091
F1
ssg1092
(dp4601
g237
F2
sg238
F2
ssg1094
(dp4602
g102
F2
ssg1096
(dp4603
g776
F1
sg777
F1
sg778
F1
sg785
F1
sg780
F1
sg781
F1
sg782
F1
sg783
F1
sg784
F1
sg786
F1
sg779
F1
sg787
F1
sg788
F1
ssg1098
(dp4604
g1100
F1
ssg1101
(dp4605
g483
F3
ssg1103
(dp4606
g1105
F1
ssg1106
(dp4607
sg1108
(dp4608
g1110
F1
ssg1111
(dp4609
g1113
F1
ssg1907
(dp4610
g1641
F3
sg685
F4
ssg3075
(dp4611
g1641
F3
sg685
F4
ssg1114
(dp4612
g1116
F1
ssg1121
(dp4613
g1123
F1
ssg1124
(dp4614
g1126
F1
ssS'ASPO3'
p4615
(dp4616
g1132
F1
ssg1127
(dp4617
g1129
F1
ssg1133
(dp4618
g1135
F1
ssS'GLYt4pp'
p4619
(dp4620
g1469
F1
ssg1136
(dp4621
g1138
F1
ssg1139
(dp4622
sg1141
(dp4623
g276
F15
sg277
F14
ssg1143
(dp4624
g1145
F1
sg1146
F1
ssg1921
(dp4625
g1149
F1
ssg1150
(dp4626
g1152
F1
ssg1153
(dp4627
g49
F4
ssg1155
(dp4628
g31
F7
sg32
F7
ssg1157
(dp4629
g1159
F1
ssg1160
(dp4630
g186
F7
ssg1162
(dp4631
g1164
F1
ssg1165
(dp4632
g89
F26
sg90
F26
sg91
F26
sg92
F26
ssg1167
(dp4633
g1169
F1
ssg1170
(dp4634
g1172
F1
ssg1173
(dp4635
sg3106
(dp4636
g3108
F1
ssg1175
(dp4637
g1177
F1
sg1178
F1
ssg1179
(dp4638
sg1181
(dp4639
g1183
F1
sg628
F2
ssg1184
(dp4640
g1186
F1
ssg1187
(dp4641
g1189
F1
ssg1190
(dp4642
sg1192
(dp4643
g89
F26
sg90
F26
sg91
F26
sg92
F26
ssg1194
(dp4644
g89
F26
sg90
F26
sg92
F26
sg91
F26
ssg1196
(dp4645
g1198
F2
ssg1199
(dp4646
g979
F2
ssg1201
(dp4647
g1203
F1
sg1204
F1
ssg1205
(dp4648
g1207
F2
ssS'EX_glc_e_reverse'
p4649
(dp4650
sg1208
(dp4651
g1210
F1
sg1211
F1
sg70
F6
sg1212
F1
sg1213
F1
ssg1214
(dp4652
g1216
F1
ssg1217
(dp4653
sg1219
(dp4654
g1221
F1
ssg1222
(dp4655
g1224
F1
ssg1237
(dp4656
g1239
F1
sg1240
F1
ssg1245
(dp4657
g590
F2
ssg1247
(dp4658
g1249
F1
ssg1957
(dp4659
g997
F2
ssg1256
(dp4660
g1258
F1
ssg1259
(dp4661
g1261
F1
ssg1262
(dp4662
g89
F26
sg90
F26
sg91
F26
sg92
F26
ssg1264
(dp4663
g452
F2
ssg1266
(dp4664
g1198
F2
ssg1268
(dp4665
sg1270
(dp4666
g1272
F1
ssg1278
(dp4667
g1280
F2
sg1281
F2
ssg1282
(dp4668
g1280
F2
sg1281
F2
ssg1284
(dp4669
g1286
F1
ssg1287
(dp4670
sg1289
(dp4671
g1207
F2
ssg1971
(dp4672
g403
F2
ssg1974
(dp4673
g1293
F3
sg1294
F3
sg177
F5
sg178
F5
ssg1295
(dp4674
g1293
F3
sg1294
F3
sg177
F5
sg178
F5
ssg3144
(dp4675
g1293
F3
sg1294
F3
sg177
F5
sg178
F5
ssg1297
(dp4676
g1299
F1
ssg1300
(dp4677
g1302
F1
ssg1303
(dp4678
g1305
F1
ssg1306
(dp4679
g155
F3
ssg1308
(dp4680
g89
F26
sg90
F26
sg91
F26
sg92
F26
ssS'GLYt2rpp_reverse'
p4681
(dp4682
sg1310
(dp4683
g1312
F1
sg60
F6
sg61
F6
ssS'RNTR2c2'
p4684
(dp4685
g57
F3
sg58
F4
sg59
F3
sg60
F6
sg61
F6
ssg1313
(dp4686
g1315
F1
ssg7
(dp4687
sg1323
(dp4688
g121
F2
ssg1325
(dp4689
g1327
F1
ssg1328
(dp4690
g1330
F1
sg1331
F1
ssg1332
(dp4691
g1334
F1
ssg1338
(dp4692
g353
F8
ssg1340
(dp4693
g1342
F1
ssg1343
(dp4694
g543
F2
sg544
F2
sg545
F2
ssg1345
(dp4695
g1347
F1
ssg1348
(dp4696
g347
F2
sg158
F2
ssg1350
(dp4697
g89
F26
sg90
F26
sg92
F26
sg91
F26
ssg1352
(dp4698
g1354
F2
sg1355
F1
sg1356
F2
sg1357
F1
sg1358
F1
ssg395
(dp4699
g70
F6
ssg1361
(dp4700
sg1363
(dp4701
g1365
F1
sg1366
F1
ssg1367
(dp4702
sg1372
(dp4703
g1017
F2
ssg1374
(dp4704
g1376
F2
ssg1377
(dp4705
g1376
F2
ssg1379
(dp4706
g1381
F1
sg1382
F1
ssg1383
(dp4707
sg1385
(dp4708
g1387
F1
ssg1388
(dp4709
g89
F26
sg90
F26
sg92
F26
sg91
F26
ssg1390
(dp4710
g1392
F1
sg1393
F1
ssS'F6PP'
p4711
(dp4712
g1085
F2
ssg1394
(dp4713
g1014
F2
ssg1396
(dp4714
g28
F2
ssg1398
(dp4715
g58
F4
sg60
F6
sg61
F6
ssg1407
(dp4716
g1409
F1
ssg1410
(dp4717
g1412
F1
ssg1413
(dp4718
g89
F26
sg90
F26
sg91
F26
sg92
F26
ssg1418
(dp4719
g31
F7
sg32
F7
ssg1422
(dp4720
g1424
F1
sg1425
F1
ssg1426
(dp4721
g54
F5
sg738
F2
ssg1428
(dp4722
g1430
F1
sg1431
F1
ssg1432
(dp4723
g1434
F2
sg1435
F1
sg1436
F1
ssg1437
(dp4724
g1439
F1
sg1440
F1
sg1441
F1
sg1442
F1
sg1443
F1
ssg1444
(dp4725
g1446
F1
ssg1447
(dp4726
g886
F2
ssg1449
(dp4727
g1451
F2
sg1452
F1
ssg1453
(dp4728
g1455
F1
sg1456
F1
ssg2030
(dp4729
g1243
F1
ssg1457
(dp4730
g1459
F1
ssg1460
(dp4731
g344
F2
ssg1462
(dp4732
g1464
F1
ssg1465
(dp4733
sg1470
(dp4734
g186
F7
ssg2040
(dp4735
g2042
F2
sg2043
F2
ssg1474
(dp4736
g1476
F1
sg1477
F1
sg1478
F1
sg1479
F1
sg1480
F1
sg1481
F1
sg1482
F1
sg1483
F1
ssg3214
(dp4737
g2042
F2
sg2043
F2
ssg1484
(dp4738
g1486
F1
ssg1487
(dp4739
g1489
F1
ssg1490
(dp4740
g1492
F1
ssg1493
(dp4741
g1495
F1
sg1496
F1
ssg1497
(dp4742
g1499
F1
ssg1500
(dp4743
g89
F26
sg90
F26
sg91
F26
sg92
F26
ssg1502
(dp4744
g1504
F1
sg1505
F1
sg1506
F1
sg1507
F1
sg1508
F1
sg1509
F1
ssg1510
(dp4745
g1512
F1
ssg1513
(dp4746
g161
F2
ssg1515
(dp4747
g1517
F1
ssg1518
(dp4748
ss.