(dp1
S'GAL_BATCH_mu=0.26_S'
p2
(dp3
S'b0007'
p4
c__builtin__
set
p5
((lp6
S'ALAt4pp'
p7
atRp8
sS'b2690'
p9
g5
((lp10
S'PGMT'
p11
atRp12
sS'b2519'
p13
g5
((lp14
S'MPTG'
p15
atRp16
sS'b0004'
p17
g5
((lp18
S'THRS'
p19
atRp20
sS'b0003'
p21
g5
((lp22
S'HSK'
p23
atRp24
sS'b0002'
p25
g5
((lp26
S'HSDy_reverse'
p27
aS'ASPK'
p28
atRp29
sS'b2925'
p30
g5
((lp31
S'FBA'
p32
atRp33
sS'b0414'
p34
g5
((lp35
S'APRAUR'
p36
aS'DHPPDA2'
p37
atRp38
sS'b3829'
p39
g5
((lp40
S'METS'
p41
atRp42
sS'b0417'
p43
g5
((lp44
S'TMPK'
p45
atRp46
sS'b2515'
p47
g5
((lp48
S'MECDPDH5'
p49
atRp50
sS'b3359'
p51
g5
((lp52
S'SDPTA_reverse'
p53
aS'ACOTA_reverse'
p54
atRp55
sS'b2518'
p56
g5
((lp57
S'NDPK2'
p58
aS'NDPK3'
p59
aS'NDPK1'
p60
aS'NDPK6'
p61
aS'NDPK4'
p62
aS'NDPK5'
p63
atRp64
sS'b4177'
p65
g5
((lp66
S'ADSS'
p67
atRp68
sS'b2926'
p69
g5
((lp70
S'PGK_reverse'
p71
atRp72
sS'b2927'
p73
g5
((lp74
S'E4PD'
p75
atRp76
sS'b2215'
p77
g5
((lp78
S'CLtex'
p79
aS'MEOHtex_reverse'
p80
aS'Zn2tex'
p81
aS'CA2tex'
p82
aS'PItex'
p83
aS'NH4tex'
p84
aS'Htex_reverse'
p85
aS'O2tex'
p86
aS'SO4tex'
p87
aS'12PPDRtex_reverse'
p88
aS'FORtex_reverse'
p89
aS'ANHGMtex_reverse'
p90
aS'AKGtex_reverse'
p91
aS'FE2tex'
p92
aS'H2Otex_reverse'
p93
aS'MOBDtex'
p94
aS'MG2tex'
p95
aS'CO2tex_reverse'
p96
aS'CU2tex'
p97
aS'MNtex'
p98
aS'NI2tex'
p99
aS'GALtex'
p100
aS'COBALT2tex'
p101
aS'Ktex'
p102
aS'QUIN2tex_reverse'
p103
aS'ETOHtex_reverse'
p104
atRp105
sS'b2210'
p106
g5
((lp107
S'MDH3'
p108
atRp109
sS'b3734'
p110
g5
((lp111
S'ATPS4rpp'
p112
atRp113
sS'b0521'
p114
g5
((lp115
S'CBMKr'
p116
atRp117
sS'b0522'
p118
g5
((lp119
S'AIRC2'
p120
atRp121
sS'b0523'
p122
g5
((lp123
S'AIRC3_reverse'
p124
atRp125
sS'b3730'
p126
g5
((lp127
S'UAGDP'
p128
aS'G1PACT'
p129
atRp130
sS'b3731'
p131
g5
((lp132
g112
atRp133
sS'b3732'
p134
g5
((lp135
g112
atRp136
sS'b3733'
p137
g5
((lp138
g112
atRp139
sS'b0529'
p140
g5
((lp141
S'MTHFD_reverse'
p142
aS'MTHFC_reverse'
p143
atRp144
sS'b3738'
p145
g5
((lp146
g112
atRp147
sS'b0954'
p148
g5
((lp149
S'3HAD100'
p150
atRp151
sS'b2601'
p152
g5
((lp153
S'DDPA'
p154
atRp155
sS'b2600'
p156
g5
((lp157
S'CHORM'
p158
aS'PPND'
p159
atRp160
sS'b3857'
p161
g5
((lp162
S'BMOGDS1'
p163
aS'BMOGDS2'
p164
atRp165
sS'b3856'
p166
g5
((lp167
g163
ag164
atRp168
sS'b0009'
p169
g5
((lp170
S'MPTAT'
p171
atRp172
sS'b2585'
p173
g5
((lp174
S'PSSA161'
p175
aS'PSSA160'
p176
atRp177
sS'b3916'
p178
g5
((lp179
S'PFK'
p180
atRp181
sS'b2587'
p182
g5
((lp183
S'AKGt2rpp_reverse'
p184
atRp185
sS'b2582'
p186
g5
((lp187
S'THIORDXi'
p188
aS'PAPSR'
p189
aS'RNDR4'
p190
aS'TRDR'
p191
aS'RNDR2'
p192
atRp193
sS'b4471'
p194
g5
((lp195
S'SERD_L'
p196
atRp197
sS'b2103'
p198
g5
((lp199
S'PMPK'
p200
atRp201
sS'b2458'
p202
g5
((lp203
S'PTAr_reverse'
p204
atRp205
sS'b3041'
p206
g5
((lp207
S'DB4PS'
p208
atRp209
sS'b1096'
p210
g5
((lp211
S'ADCL'
p212
atRp213
sS'b1095'
p214
g5
((lp215
S'3OAS100'
p216
aS'3OAS140'
p217
atRp218
sS'b1094'
p219
g5
((lp220
S'UAGAAT'
p221
aS'G3PAT160'
p222
aS'MCOATA'
p223
aS'AACPS9'
p224
aS'AACPS4'
p225
aS'G3PAT161'
p226
aS'AACPS7'
p227
aS'AACPS3'
p228
atRp229
sS'b1093'
p230
g5
((lp231
S'OPMEACPR'
p232
aS'3OAR140'
p233
aS'OGMEACPR'
p234
aS'3OAR100'
p235
atRp236
sS'b1092'
p237
g5
((lp238
g223
atRp239
sS'b1091'
p240
g5
((lp241
S'OGMEACPS'
p242
atRp243
sS'b1098'
p244
g5
((lp245
S'DTMPK'
p246
atRp247
sS'b0907'
p248
g5
((lp249
S'PSERT'
p250
aS'OHPBAT'
p251
atRp252
sS'b0452'
p253
g5
((lp254
S'FACOAE80'
p255
aS'FACOAE161'
p256
aS'FACOAE160'
p257
aS'FACOAE120'
p258
atRp259
sS'b2779'
p260
g5
((lp261
S'ENO'
p262
atRp263
sS'b0903'
p264
g5
((lp265
S'PFL'
p266
atRp267
sS'b1378'
p268
g5
((lp269
S'POR5_reverse'
p270
atRp271
sS'b1277'
p272
g5
((lp273
S'GTPCII2'
p274
atRp275
sS'b0778'
p276
g5
((lp277
S'DBTS'
p278
atRp279
sS'b4214'
p280
g5
((lp281
S'BPNT'
p282
atRp283
sS'b0775'
p284
g5
((lp285
S'BTS5'
p286
atRp287
sS'b0774'
p288
g5
((lp289
S'AMAOTr'
p290
atRp291
sS'b0777'
p292
g5
((lp293
S'MALCOAMT'
p294
atRp295
sS'b0776'
p296
g5
((lp297
S'AOXSr2'
p298
atRp299
sS'b1377'
p300
g5
((lp301
g79
ag80
ag81
ag82
ag83
ag84
ag85
ag86
ag87
ag88
ag89
ag90
ag91
ag92
ag93
ag94
ag95
ag96
ag97
ag98
ag99
ag100
ag101
ag102
ag103
ag104
atRp302
sS'b0415'
p303
g5
((lp304
S'RBFSa'
p305
atRp306
sS'b0908'
p307
g5
((lp308
S'PSCVT'
p309
atRp310
sS'b1676'
p311
g5
((lp312
S'PYK'
p313
atRp314
sS'b3172'
p315
g5
((lp316
S'ARGSS'
p317
atRp318
sS'b3176'
p319
g5
((lp320
S'PGAMT_reverse'
p321
atRp322
sS'b3177'
p323
g5
((lp324
S'DHPS2'
p325
atRp326
sS'b3493'
p327
g5
((lp328
S'PIt2rpp'
p329
atRp330
sS'b0875'
p331
g5
((lp332
S'H2Otpp_reverse'
p333
atRp334
sS'b0870'
p335
g5
((lp336
S'THRAi'
p337
atRp338
sS'b3256'
p339
g5
((lp340
S'ACCOAC'
p341
atRp342
sS'b3255'
p343
g5
((lp344
g341
atRp345
sS'b0512'
p346
g5
((lp347
S'ALLTN'
p348
atRp349
sS'b4139'
p350
g5
((lp351
S'ASPT'
p352
atRp353
sS'b0516'
p354
g5
((lp355
S'ALLTAMH'
p356
atRp357
sS'b1478'
p358
g5
((lp359
S'ALCD2x_reverse'
p360
atRp361
sS'b1773'
p362
g5
((lp363
g32
atRp364
sS'b0684'
p365
g5
((lp366
g49
aS'RNTR1c2'
p367
ag270
aS'RNTR3c2'
p368
aS'FLDR2'
p369
atRp370
sS'b1779'
p371
g5
((lp372
g75
aS'GAPD'
p373
atRp374
sS'b2311'
p375
g5
((lp376
S'OPHBDC'
p377
atRp378
sS'b3380'
p379
g5
((lp380
S'PPM_reverse'
p381
atRp382
sS'b2312'
p383
g5
((lp384
S'GLUPRT'
p385
atRp386
sS'b2315'
p387
g5
((lp388
S'DHFS'
p389
atRp390
sS'b3735'
p391
g5
((lp392
g112
atRp393
sS'b3389'
p394
g5
((lp395
S'DHQS'
p396
atRp397
sS'b2251'
p398
g5
((lp399
S'DUTPDP'
p400
atRp401
sS'b3736'
p402
g5
((lp403
g112
atRp404
sS'b3671'
p405
g5
((lp406
S'ACHBS'
p407
aS'ACLS'
p408
atRp409
sS'b3670'
p410
g5
((lp411
g407
ag408
atRp412
sS'b1486'
p413
g5
((lp414
S'ALAALAabcpp'
p415
atRp416
sS'b3737'
p417
g5
((lp418
g112
atRp419
sS'b0179'
p420
g5
((lp421
S'U23GAAT'
p422
atRp423
sS'b1483'
p424
g5
((lp425
g415
atRp426
sS'b3770'
p427
g5
((lp428
S'PHETA1_reverse'
p429
aS'VALTA_reverse'
p430
aS'LEUTAi'
p431
aS'ILETA_reverse'
p432
atRp433
sS'b3771'
p434
g5
((lp435
S'DHAD1'
p436
aS'DHAD2'
p437
atRp438
sS'b0175'
p439
g5
((lp440
S'DASYN160'
p441
aS'DASYN161'
p442
atRp443
sS'b0174'
p444
g5
((lp445
S'UDCPDPS'
p446
atRp447
sS'b0173'
p448
g5
((lp449
S'DXPRIi'
p450
atRp451
sS'b2285'
p452
g5
((lp453
S'NADH16pp'
p454
aS'NADH17pp'
p455
atRp456
sS'b0171'
p457
g5
((lp458
S'UMPK'
p459
atRp460
sS'b0425'
p461
g5
((lp462
S'DPR'
p463
atRp464
sS'b0356'
p465
g5
((lp466
g360
atRp467
sS'b3952'
p468
g5
((lp469
g266
atRp470
sS'b0421'
p471
g5
((lp472
S'GRTT'
p473
aS'DMATT'
p474
atRp475
sS'b0420'
p476
g5
((lp477
S'DXPS'
p478
atRp479
sS'b0351'
p480
g5
((lp481
S'ACALD_reverse'
p482
atRp483
sS'b3957'
p484
g5
((lp485
S'ACODA'
p486
atRp487
sS'b3958'
p488
g5
((lp489
S'AGPR_reverse'
p490
atRp491
sS'b3959'
p492
g5
((lp493
S'ACGK'
p494
atRp495
sS'b2818'
p496
g5
((lp497
S'ACGS'
p498
atRp499
sS'b0429'
p500
g5
((lp501
S'CYTBO3_4pp'
p502
atRp503
sS'b2425'
p504
g5
((lp505
S'MOBDabcpp'
p506
atRp507
sS'b2424'
p508
g5
((lp509
g506
atRp510
sS'b1723'
p511
g5
((lp512
g180
atRp513
sS'b4006'
p514
g5
((lp515
S'AICART'
p516
aS'IMPC_reverse'
p517
atRp518
sS'b4005'
p519
g5
((lp520
S'PRAGSr'
p521
atRp522
sS'b0052'
p523
g5
((lp524
S'PDX5PS'
p525
atRp526
sS'b3816'
p527
g5
((lp528
S'NI2tpp'
p529
aS'COBALT2tpp'
p530
atRp531
sS'b3386'
p532
g5
((lp533
S'RPE'
p534
atRp535
sS'b3739'
p536
g5
((lp537
g112
atRp538
sS'b0451'
p539
g5
((lp540
S'NH4tpp'
p541
atRp542
sS'b0904'
p543
g5
((lp544
S'FORtppi'
p545
atRp546
sS'b0902'
p547
g5
((lp548
g266
atRp549
sS'b0957'
p550
g5
((lp551
S'H2Otex_reverse'
p552
atRp553
sS'b2558'
p554
g5
((lp555
S'MLTGY3pp'
p556
atRp557
sS'b2557'
p558
g5
((lp559
S'PRFGS'
p560
atRp561
sS'b2224'
p562
g5
((lp563
S'ACACT1r'
p564
atRp565
sS'b2551'
p566
g5
((lp567
g337
atRp568
sS'b2045'
p569
g5
((lp570
S'GALKr'
p571
atRp572
sS's0001'
p573
g5
((lp574
S'DHPTDCs2'
p575
aS'OMCDC'
p576
aS'MTHTHFSs'
p577
aS'CO2tpp_reverse'
p578
ag552
aS'MEOHtrpp_reverse'
p579
aS'G5SADs'
p580
ag541
ag333
aS'O2tpp'
p581
aS'ETOHtrpp_reverse'
p582
atRp583
sS'b3924'
p584
g5
((lp585
g367
ag368
ag369
atRp586
sS'b0221'
p587
g5
((lp588
S'ACOAD5f_reverse'
p589
aS'ACOAD7f_reverse'
p590
aS'ACOAD1f_reverse'
p591
aS'ACOAD2f_reverse'
p592
aS'ACOAD4f_reverse'
p593
aS'ACOAD6f_reverse'
p594
aS'ACOAD3f_reverse'
p595
atRp596
sS'b1250'
p597
g5
((lp598
S'Kt2pp'
p599
atRp600
sS'b3607'
p601
g5
((lp602
S'SERAT'
p603
atRp604
sS'b1606'
p605
g5
((lp606
S'DHFR'
p607
atRp608
sS'b0764'
p609
g5
((lp610
g506
atRp611
sS'b1602'
p612
g5
((lp613
S'THD2pp'
p614
atRp615
sS'b1603'
p616
g5
((lp617
g614
atRp618
sS'b1278'
p619
g5
((lp620
S'UDCPDP'
p621
atRp622
sS'b1281'
p623
g5
((lp624
S'OMPDC'
p625
atRp626
sS'b0765'
p627
g5
((lp628
g506
atRp629
sS'b1288'
p630
g5
((lp631
S'EPMEACPR'
p632
aS'EGMEACPR'
p633
atRp634
sS'b1702'
p635
g5
((lp636
S'PPS'
p637
atRp638
sS'b3850'
p639
g5
((lp640
S'PPPGO3'
p641
atRp642
sS'b1302'
p643
g5
((lp644
S'ABTA'
p645
atRp646
sS'b4245'
p647
g5
((lp648
S'ASPCT'
p649
atRp650
sS'b3198'
p651
g5
((lp652
S'KDOPP'
p653
atRp654
sS'b3199'
p655
g5
((lp656
S'K2L4Aabctex'
p657
atRp658
sS'b3581'
p659
g5
((lp660
S'KG6PDC'
p661
atRp662
sS'b3196'
p663
g5
((lp664
S'CAt6pp_reverse'
p665
atRp666
sS'b3197'
p667
g5
((lp668
S'A5PISO'
p669
atRp670
sS'b3945'
p671
g5
((lp672
S'LALDO2x'
p673
aS'GLYCDx'
p674
atRp675
sS'b4383'
p676
g5
((lp677
g381
atRp678
sS'b4384'
p679
g5
((lp680
S'PUNP1_reverse'
p681
atRp682
sS'b4388'
p683
g5
((lp684
S'PSP_L'
p685
atRp686
sS'b4262'
p687
g5
((lp688
g657
atRp689
sS'b4261'
p690
g5
((lp691
g657
atRp692
sS'b4267'
p693
g5
((lp694
S'IDOND'
p695
atRp696
sS'b4265'
p697
g5
((lp698
S'IDONt2rpp_reverse'
p699
atRp700
sS'b3917'
p701
g5
((lp702
g506
atRp703
sS'b3412'
p704
g5
((lp705
S'PMEACPE'
p706
atRp707
sS'b1264'
p708
g5
((lp709
S'ANS'
p710
atRp711
sS'b0767'
p712
g5
((lp713
S'PGL'
p714
atRp715
sS'b0635'
p716
g5
((lp717
S'MCTP1App'
p718
atRp719
sS'b0888'
p720
g5
((lp721
g191
atRp722
sS'b3360'
p723
g5
((lp724
S'ADCS'
p725
atRp726
sS'b4041'
p727
g5
((lp728
g222
ag226
atRp729
sS'b4040'
p730
g5
((lp731
S'HBZOPT'
p732
atRp733
sS'b2917'
p734
g5
((lp735
S'MMM'
p736
atRp737
sS'b2914'
p738
g5
((lp739
S'RPI_reverse'
p740
atRp741
sS'b2913'
p742
g5
((lp743
S'PGCD'
p744
atRp745
sS'b2662'
p746
g5
((lp747
g645
atRp748
sS'b4169'
p749
g5
((lp750
S'AGM3PApp'
p751
atRp752
sS'b1263'
p753
g5
((lp754
S'ANPRT'
p755
ag710
atRp756
sS'b4160'
p757
g5
((lp758
S'PSD160'
p759
aS'PSD161'
p760
atRp761
sS'b0126'
p762
g5
((lp763
S'HCO3E'
p764
atRp765
sS'b0369'
p766
g5
((lp767
S'PPBNGS'
p768
atRp769
sS'b3744'
p770
g5
((lp771
S'ASNS2'
p772
atRp773
sS'b3747'
p774
g5
((lp775
g599
atRp776
sS'b0123'
p777
g5
((lp778
S'FEROpp'
p779
atRp780
sS'b0087'
p781
g5
((lp782
S'PAPPT3'
p783
atRp784
sS'b0086'
p785
g5
((lp786
S'UGMDDS'
p787
atRp788
sS'b0085'
p789
g5
((lp790
S'UAAGDS'
p791
atRp792
sS'b0084'
p793
g5
((lp794
g718
atRp795
sS'b2342'
p796
g5
((lp797
S'ACACT6r'
p798
aS'ACACT4r'
p799
aS'ACACT5r'
p800
ag564
aS'ACACT7r'
p801
aS'ACACT3r'
p802
aS'ACACT2r'
p803
atRp804
sS'b2615'
p805
g5
((lp806
S'NADK'
p807
atRp808
sS'b2341'
p809
g5
((lp810
S'HACD1'
p811
aS'HACD3'
p812
aS'HACD2'
p813
aS'HACD5'
p814
aS'HACD4'
p815
aS'HACD7'
p816
aS'HACD6'
p817
aS'ECOAH6'
p818
aS'ECOAH7'
p819
aS'ECOAH4'
p820
aS'ECOAH5'
p821
aS'ECOAH2'
p822
aS'ECOAH3'
p823
aS'ECOAH1'
p824
atRp825
sS'b2838'
p826
g5
((lp827
S'DAPDC'
p828
atRp829
sS'b0261'
p830
g5
((lp831
S'HCYSMT'
p832
atRp833
sS'b3846'
p834
g5
((lp835
g811
ag812
ag813
ag814
ag815
ag816
ag817
ag818
ag819
ag820
ag821
ag822
ag823
ag824
aS'CTECOAI7_reverse'
p836
atRp837
sS'b3844'
p838
g5
((lp839
S'FADRx'
p840
atRp841
sS'b3845'
p842
g5
((lp843
g798
ag799
ag800
ag564
ag801
ag802
ag803
atRp844
sS'b0061'
p845
g5
((lp846
S'RBP4E'
p847
atRp848
sS'b3843'
p849
g5
((lp850
g377
atRp851
sS'b2987'
p852
g5
((lp853
g329
atRp854
sS'b3960'
p855
g5
((lp856
S'ARGSL'
p857
atRp858
sS'b2867'
p859
g5
((lp860
S'HXAND'
p861
aS'XAND'
p862
atRp863
sS'b2866'
p864
g5
((lp865
g861
ag862
atRp866
sS'b3967'
p867
g5
((lp868
S'GLUR_reverse'
p869
atRp870
sS'b3849'
p871
g5
((lp872
g599
atRp873
sS'b3867'
p874
g5
((lp875
S'CPPPGO2'
p876
atRp877
sS'b1206'
p878
g5
((lp879
S'SO4t2pp'
p880
atRp881
sS'b3994'
p882
g5
((lp883
S'AMPMS2'
p884
atRp885
sS'b2507'
p886
g5
((lp887
S'GMPS2'
p888
atRp889
sS'b3990'
p890
g5
((lp891
S'THZPSN3'
p892
atRp893
sS'b2501'
p894
g5
((lp895
S'PPKr_reverse'
p896
atRp897
sS'b3992'
p898
g5
((lp899
g892
atRp900
sS'b3993'
p901
g5
((lp902
S'TMPPP'
p903
atRp904
sS'b2465'
p905
g5
((lp906
S'TKT2'
p907
aS'TKT1'
p908
atRp909
sS'b2464'
p910
g5
((lp911
S'TALA'
p912
atRp913
sS'b2508'
p914
g5
((lp915
S'IMPD'
p916
atRp917
sS'b2480'
p918
g5
((lp919
g188
atRp920
sS'b3057'
p921
g5
((lp922
g621
atRp923
sS'b0423'
p924
g5
((lp925
g892
atRp926
sS'b3951'
p927
g5
((lp928
g266
atRp929
sS'b2762'
p930
g5
((lp931
g189
atRp932
sS'b2763'
p933
g5
((lp934
S'SULRi'
p935
atRp936
sS'b2764'
p937
g5
((lp938
g935
atRp939
sS'b3543'
p940
g5
((lp941
g415
atRp942
sS'b3542'
p943
g5
((lp944
g415
atRp945
sS'b3541'
p946
g5
((lp947
g415
atRp948
sS'b3540'
p949
g5
((lp950
g415
atRp951
sS'b1260'
p952
g5
((lp953
S'TRPS1'
p954
atRp955
sS'b0763'
p956
g5
((lp957
g506
atRp958
sS'b1262'
p959
g5
((lp960
S'PRAIi'
p961
aS'IGPS'
p962
atRp963
sS'b3544'
p964
g5
((lp965
g415
atRp966
sS'b0031'
p967
g5
((lp968
S'DHDPRy'
p969
atRp970
sS'b1865'
p971
g5
((lp972
S'DNTPPA'
p973
atRp974
sS'b0841'
p975
g5
((lp976
g621
atRp977
sS'b4122'
p978
g5
((lp979
S'FUM'
p980
atRp981
sS'b0118'
p982
g5
((lp983
S'ACONTa'
p984
aS'ACONTb'
p985
aS'MICITDr'
p986
atRp987
sS'b0115'
p988
g5
((lp989
S'PDH'
p990
atRp991
sS'b0114'
p992
g5
((lp993
g990
atRp994
sS'b0116'
p995
g5
((lp996
g990
atRp997
sS'b0505'
p998
g5
((lp999
S'UGLYCH'
p1000
atRp1001
sS'b1740'
p1002
g5
((lp1003
S'NADS1'
p1004
atRp1005
sS'b1748'
p1006
g5
((lp1007
g54
atRp1008
sS'b3390'
p1009
g5
((lp1010
S'SHKK'
p1011
atRp1012
sS'b3396'
p1013
g5
((lp1014
g15
aS'MCTP1Bpp'
p1015
ag718
atRp1016
sS'b3665'
p1017
g5
((lp1018
S'ADD'
p1019
atRp1020
sS'b0166'
p1021
g5
((lp1022
S'THDPS'
p1023
atRp1024
sS'b3433'
p1025
g5
((lp1026
S'ASAD_reverse'
p1027
atRp1028
sS'b2282'
p1029
g5
((lp1030
g454
ag455
atRp1031
sS'b2281'
p1032
g5
((lp1033
g454
ag455
atRp1034
sS'b2280'
p1035
g5
((lp1036
g454
ag455
atRp1037
sS'b0432'
p1038
g5
((lp1039
g502
atRp1040
sS'b2286'
p1041
g5
((lp1042
g454
ag455
atRp1043
sS'b0430'
p1044
g5
((lp1045
g502
atRp1046
sS'b2943'
p1047
g5
((lp1048
S'GALt2pp'
p1049
atRp1050
sS'b2827'
p1051
g5
((lp1052
S'TMDS'
p1053
atRp1054
sS'b2288'
p1055
g5
((lp1056
g454
ag455
atRp1057
sS'b2530'
p1058
g5
((lp1059
g892
aS'I2FE2SR'
p1060
aS'I2FE2SS'
p1061
aS'I2FE2SS2'
p1062
aS'MOADSUx'
p1063
aS'ICYSDS'
p1064
atRp1065
sS'b0029'
p1066
g5
((lp1067
S'IPDPS'
p1068
aS'DMPPS'
p1069
atRp1070
sS'b4154'
p1071
g5
((lp1072
S'FRD2'
p1073
atRp1074
sS'b3809'
p1075
g5
((lp1076
S'DAPE'
p1077
atRp1078
sS'b4151'
p1079
g5
((lp1080
g1073
atRp1081
sS'b0180'
p1082
g5
((lp1083
S'OGMEACPD'
p1084
ag150
aS'OPMEACPD'
p1085
atRp1086
sS'b4152'
p1087
g5
((lp1088
g1073
atRp1089
sS'b4014'
p1090
g5
((lp1091
S'MALS'
p1092
atRp1093
sS'b4015'
p1094
g5
((lp1095
S'ICL'
p1096
atRp1097
sS'b0025'
p1098
g5
((lp1099
S'FMNAT'
p1100
aS'RBFK'
p1101
atRp1102
sS'b3807'
p1103
g5
((lp1104
g1062
ag1061
atRp1105
sS'b3804'
p1106
g5
((lp1107
S'UPP3S'
p1108
atRp1109
sS'b4013'
p1110
g5
((lp1111
S'HSST'
p1112
atRp1113
sS'b2284'
p1114
g5
((lp1115
g454
ag455
atRp1116
sS'b4090'
p1117
g5
((lp1118
g740
atRp1119
sS'b2234'
p1120
g5
((lp1121
g190
ag192
atRp1122
sS'b2235'
p1123
g5
((lp1124
g190
ag192
atRp1125
sS'b2751'
p1126
g5
((lp1127
S'SADT2'
p1128
atRp1129
sS'b2750'
p1130
g5
((lp1131
S'ADSK'
p1132
atRp1133
sS'b2752'
p1134
g5
((lp1135
g1128
atRp1136
sS'b3803'
p1137
g5
((lp1138
S'UPP3MT'
p1139
atRp1140
sS'b0334'
p1141
g5
((lp1142
S'MCITD'
p1143
atRp1144
sS'b0331'
p1145
g5
((lp1146
S'MCITL2'
p1147
atRp1148
sS'b0333'
p1149
g5
((lp1150
S'MCITS'
p1151
atRp1152
sS'b0185'
p1153
g5
((lp1154
g341
atRp1155
sS'b3939'
p1156
g5
((lp1157
S'SHSL1'
p1158
atRp1159
sS'b2435'
p1160
g5
((lp1161
g751
atRp1162
sS'b1638'
p1163
g5
((lp1164
S'PDX5POi'
p1165
atRp1166
sS'b4301'
p1167
g5
((lp1168
g534
atRp1169
sS'b3583'
p1170
g5
((lp1171
g847
atRp1172
sS'b3201'
p1173
g5
((lp1174
g657
atRp1175
sS'b1704'
p1176
g5
((lp1177
g154
atRp1178
sS'b1319'
p1179
g5
((lp1180
g552
atRp1181
sS'b3612'
p1182
g5
((lp1183
S'PGM_reverse'
p1184
atRp1185
sS'b0090'
p1186
g5
((lp1187
S'UAGPT3'
p1188
atRp1189
sS'b3114'
p1190
g5
((lp1191
g266
atRp1192
sS'b3115'
p1193
g5
((lp1194
S'ACKr'
p1195
atRp1196
sS'b3117'
p1197
g5
((lp1198
S'THRD_L'
p1199
atRp1200
sS'b3290'
p1201
g5
((lp1202
g599
atRp1203
sS'b0722'
p1204
g5
((lp1205
S'SUCDi'
p1206
atRp1207
sS'b0723'
p1208
g5
((lp1209
g1206
atRp1210
sS'b0720'
p1211
g5
((lp1212
S'CS'
p1213
atRp1214
sS'b0721'
p1215
g5
((lp1216
g1206
atRp1217
sS'b3058'
p1218
g5
((lp1219
S'DHNPA2r'
p1220
atRp1221
sS'b0724'
p1222
g5
((lp1223
g1206
atRp1224
sS'b0728'
p1225
g5
((lp1226
S'SUCOAS'
p1227
atRp1228
sS'b0729'
p1229
g5
((lp1230
g1227
atRp1231
sS'b2153'
p1232
g5
((lp1233
S'GTPCI'
p1234
atRp1235
sS'b4053'
p1236
g5
((lp1237
S'ALAR'
p1238
atRp1239
sS'b4054'
p1240
g5
((lp1241
g429
aS'TYRTA_reverse'
p1242
ag431
atRp1243
sS'b0474'
p1244
g5
((lp1245
S'ADK1'
p1246
ag58
ag59
aS'ADNK1'
p1247
ag60
ag61
ag62
ag63
atRp1248
sS'b0475'
p1249
g5
((lp1250
S'FCLT'
p1251
atRp1252
sS'b0273'
p1253
g5
((lp1254
S'OCBT'
p1255
atRp1256
sS'b1415'
p1257
g5
((lp1258
S'GCALDD'
p1259
atRp1260
sS'b0243'
p1261
g5
((lp1262
S'G5SD'
p1263
atRp1264
sS'b1276'
p1265
g5
((lp1266
g984
ag985
atRp1267
sS'b2276'
p1268
g5
((lp1269
g454
ag455
atRp1270
sS'b2277'
p1271
g5
((lp1272
g454
ag455
atRp1273
sS'b2278'
p1274
g5
((lp1275
g454
ag455
atRp1276
sS'b2279'
p1277
g5
((lp1278
g454
ag455
atRp1279
sS'b3200'
p1280
g5
((lp1281
g657
atRp1282
sS'b0099'
p1283
g5
((lp1284
g973
atRp1285
sS'b2379'
p1286
g5
((lp1287
S'ALATA_L_reverse'
p1288
atRp1289
sS'b2024'
p1290
g5
((lp1291
S'PRMICI'
p1292
atRp1293
sS'b0155'
p1294
g5
((lp1295
S'CLt3_2pp'
p1296
atRp1297
sS'b0154'
p1298
g5
((lp1299
S'G1SAT'
p1300
atRp1301
sS'b0159'
p1302
g5
((lp1303
S'AHCYSNS'
p1304
aS'5DOAN'
p1305
atRp1306
sS'b0091'
p1307
g5
((lp1308
S'UAMAS'
p1309
atRp1310
sS'b0092'
p1311
g5
((lp1312
S'ALAALAr'
p1313
atRp1314
sS'b0096'
p1315
g5
((lp1316
S'UHGADA'
p1317
atRp1318
sS'b2874'
p1319
g5
((lp1320
g116
atRp1321
sS'b2019'
p1322
g5
((lp1323
S'ATPPRT'
p1324
atRp1325
sS'b2400'
p1326
g5
((lp1327
S'GLUTRS'
p1328
atRp1329
sS'b4025'
p1330
g5
((lp1331
S'PGI'
p1332
atRp1333
sS'b0077'
p1334
g5
((lp1335
g407
ag408
atRp1336
sS'b0074'
p1337
g5
((lp1338
S'IPPS'
p1339
atRp1340
sS'b3870'
p1341
g5
((lp1342
S'GLNS'
p1343
atRp1344
sS'b2979'
p1345
g5
((lp1346
S'GLYCTO2'
p1347
atRp1348
sS'b0073'
p1349
g5
((lp1350
S'IPMD'
p1351
atRp1352
sS'b3875'
p1353
g5
((lp1354
g552
atRp1355
sS'b0071'
p1356
g5
((lp1357
S'IPPMIa_reverse'
p1358
aS'IPPMIb_reverse'
p1359
atRp1360
sS'b3972'
p1361
g5
((lp1362
S'UAPGR'
p1363
atRp1364
sS'b2976'
p1365
g5
((lp1366
g1092
atRp1367
sS'b0078'
p1368
g5
((lp1369
g407
ag408
atRp1370
sS'b0524'
p1371
g5
((lp1372
S'USHD'
p1373
atRp1374
sS'b4024'
p1375
g5
((lp1376
g28
atRp1377
sS'b2478'
p1378
g5
((lp1379
S'DHDPS'
p1380
atRp1381
sS'b0386'
p1382
g5
((lp1383
S'P5CR'
p1384
atRp1385
sS'b2687'
p1386
g5
((lp1387
S'RHCCE'
p1388
atRp1389
sS'b2574'
p1390
g5
((lp1391
S'ASPO5'
p1392
atRp1393
sS'b2579'
p1394
g5
((lp1395
g266
atRp1396
sS'b0072'
p1397
g5
((lp1398
g1358
ag1359
atRp1399
sS'b2472'
p1400
g5
((lp1401
S'SDPDS'
p1402
atRp1403
sS'b0388'
p1404
g5
((lp1405
g1011
atRp1406
sS'b2476'
p1407
g5
((lp1408
S'PRASCSi'
p1409
atRp1410
sS'b2283'
p1411
g5
((lp1412
g454
ag455
atRp1413
sS'b2780'
p1414
g5
((lp1415
S'CTPS2'
p1416
atRp1417
sS'b2701'
p1418
g5
((lp1419
g556
atRp1420
sS'b2708'
p1421
g5
((lp1422
g669
atRp1423
sS'b2492'
p1424
g5
((lp1425
g545
atRp1426
sS'b2287'
p1427
g5
((lp1428
g454
ag455
atRp1429
sS'b2499'
p1430
g5
((lp1431
S'PRAIS'
p1432
atRp1433
sS'b2942'
p1434
g5
((lp1435
S'METAT'
p1436
atRp1437
sS'b0639'
p1438
g5
((lp1439
S'NNATr'
p1440
atRp1441
sS'b0431'
p1442
g5
((lp1443
g502
atRp1444
sS'b3974'
p1445
g5
((lp1446
S'PNTK'
p1447
atRp1448
sS'b2797'
p1449
g5
((lp1450
g196
atRp1451
sS'b4238'
p1452
g5
((lp1453
g367
ag368
atRp1454
sS'b0759'
p1455
g5
((lp1456
S'UDPG4E_reverse'
p1457
atRp1458
sS'b0758'
p1459
g5
((lp1460
S'UGLT'
p1461
atRp1462
sS'b1210'
p1463
g5
((lp1464
S'GLUTRR'
p1465
atRp1466
sS'b0750'
p1467
g5
((lp1468
S'QULNS'
p1469
atRp1470
sS'b0757'
p1471
g5
((lp1472
g571
atRp1473
sS'b0755'
p1474
g5
((lp1475
g1184
atRp1476
sS'b0754'
p1477
g5
((lp1478
g154
atRp1479
sS'b1261'
p1480
g5
((lp1481
g954
atRp1482
sS'b4407'
p1483
g5
((lp1484
g892
atRp1485
sS'b3018'
p1486
g5
((lp1487
S'AGPAT160'
p1488
aS'AGPAT161'
p1489
atRp1490
sS'b1852'
p1491
g5
((lp1492
S'G6PDH2r'
p1493
atRp1494
sS'b1851'
p1495
g5
((lp1496
S'EDD'
p1497
atRp1498
sS'b1850'
p1499
g5
((lp1500
S'EDA'
p1501
atRp1502
sS'b1854'
p1503
g5
((lp1504
g313
atRp1505
sS'b0182'
p1506
g5
((lp1507
S'LPADSS'
p1508
atRp1509
sS'b3729'
p1510
g5
((lp1511
S'GF6PTA'
p1512
atRp1513
sS'b4153'
p1514
g5
((lp1515
g1073
atRp1516
sS'b0109'
p1517
g5
((lp1518
S'NNDPR'
p1519
atRp1520
sS'b0181'
p1521
g5
((lp1522
g221
atRp1523
sS'b1592'
p1524
g5
((lp1525
g1296
atRp1526
sS'b0103'
p1527
g5
((lp1528
S'DPCOAK'
p1529
atRp1530
sS'b3236'
p1531
g5
((lp1532
S'MDH'
p1533
atRp1534
sS'b1693'
p1535
g5
((lp1536
S'DHQTi'
p1537
atRp1538
sS'b1692'
p1539
g5
((lp1540
S'QUINDH_reverse'
p1541
aS'SHK3Dr'
p1542
atRp1543
sS'b0781'
p1544
g5
((lp1545
S'CPMPS'
p1546
atRp1547
sS'b4244'
p1548
g5
((lp1549
g649
atRp1550
sS'b1329'
p1551
g5
((lp1552
S'3PEPTabcpp'
p1553
atRp1554
sS'b2919'
p1555
g5
((lp1556
S'MMCD'
p1557
atRp1558
sS'b0616'
p1559
g5
((lp1560
S'CITL'
p1561
atRp1562
sS'b0617'
p1563
g5
((lp1564
g1561
atRp1565
sS'b0614'
p1566
g5
((lp1567
g1561
atRp1568
sS'b0615'
p1569
g5
((lp1570
g1561
atRp1571
sS'b3805'
p1572
g5
((lp1573
S'HMBS'
p1574
atRp1575
sS'b0381'
p1576
g5
((lp1577
g1313
atRp1578
sS'b0403'
p1579
g5
((lp1580
S'MLTG5'
p1581
atRp1582
sS'b3835'
p1583
g5
((lp1584
S'OPHHX'
p1585
atRp1586
sS'b3368'
p1587
g5
((lp1588
S'SHCHD2'
p1589
ag1139
aS'SHCHF'
p1590
atRp1591
sS'b2935'
p1592
g5
((lp1593
g907
ag908
atRp1594
sS'b2528'
p1595
g5
((lp1596
S'I4FE4ST'
p1597
aS'I2FE2ST'
p1598
atRp1599
sS'b2529'
p1600
g5
((lp1601
g1597
aS'I4FE4SR'
p1602
ag1060
ag1061
ag1598
ag1062
atRp1603
sS'b2661'
p1604
g5
((lp1605
S'SSALy'
p1606
atRp1607
sS'b2296'
p1608
g5
((lp1609
g1195
atRp1610
sS'b2297'
p1611
g5
((lp1612
g204
atRp1613
sS'b2290'
p1614
g5
((lp1615
g1288
atRp1616
sS'b2836'
p1617
g5
((lp1618
g225
ag227
ag224
ag228
atRp1619
sS'b1525'
p1620
g5
((lp1621
g1606
atRp1622
sS'b0394'
p1623
g5
((lp1624
S'HEX7'
p1625
atRp1626
sS'b1297'
p1627
g5
((lp1628
g1343
atRp1629
sS'b0928'
p1630
g5
((lp1631
g429
ag1242
aS'ASPTA_reverse'
p1632
atRp1633
sS'b0929'
p1634
g5
((lp1635
g79
ag80
ag81
ag82
ag83
ag84
ag85
ag86
ag87
ag88
ag89
ag90
ag91
ag92
ag93
ag94
ag95
ag96
ag97
ag98
ag99
ag100
ag101
ag102
ag103
ag104
atRp1636
sS'b0008'
p1637
g5
((lp1638
g912
atRp1639
sS'b2746'
p1640
g5
((lp1641
S'MECDPS'
p1642
atRp1643
sS'b2747'
p1644
g5
((lp1645
S'MEPCT'
p1646
atRp1647
sS'b0323'
p1648
g5
((lp1649
g116
atRp1650
sS'b0241'
p1651
g5
((lp1652
g79
ag80
ag81
ag82
ag83
ag84
ag85
ag86
ag87
ag88
ag89
ag90
ag91
ag92
ag93
ag94
ag95
ag96
ag97
ag98
ag99
ag100
ag101
ag102
ag103
ag104
atRp1653
sS'b2599'
p1654
g5
((lp1655
g158
aS'PPNDH'
p1656
atRp1657
sS'b0242'
p1658
g5
((lp1659
S'GLU5K'
p1660
atRp1661
sS'b3708'
p1662
g5
((lp1663
g196
atRp1664
sS'b4467'
p1665
g5
((lp1666
g1347
atRp1667
sS'b3565'
p1668
g5
((lp1669
S'XYLI2'
p1670
atRp1671
sS'b4468'
p1672
g5
((lp1673
g1347
atRp1674
sS'b1814'
p1675
g5
((lp1676
g196
atRp1677
sS'b1812'
p1678
g5
((lp1679
g725
atRp1680
sS'b0688'
p1681
g5
((lp1682
g11
atRp1683
sS'b1131'
p1684
g5
((lp1685
S'ADSL2r'
p1686
aS'ADSL1r'
p1687
atRp1688
sS'b1136'
p1689
g5
((lp1690
S'ICDHyr'
p1691
atRp1692
sS'b1246'
p1693
g5
((lp1694
g1553
atRp1695
sS'b1247'
p1696
g5
((lp1697
g1553
atRp1698
sS'b1244'
p1699
g5
((lp1700
g1553
atRp1701
sS'b1245'
p1702
g5
((lp1703
g1553
atRp1704
sS'b0784'
p1705
g5
((lp1706
g1063
aS'MPTS'
p1707
atRp1708
sS'b0785'
p1709
g5
((lp1710
g1707
atRp1711
sS'b1241'
p1712
g5
((lp1713
g360
ag482
atRp1714
sS'b1493'
p1715
g5
((lp1716
S'GLUDC'
p1717
atRp1718
sS'b4208'
p1719
g5
((lp1720
S'DALAt2pp'
p1721
atRp1722
sS'b1363'
p1723
g5
((lp1724
g599
atRp1725
sS'b3997'
p1726
g5
((lp1727
S'UPPDC1'
p1728
atRp1729
sS'b3639'
p1730
g5
((lp1731
S'PPCDC'
p1732
aS'PPNCL2'
p1733
atRp1734
sS'b3281'
p1735
g5
((lp1736
g1542
atRp1737
sS'b1622'
p1738
g5
((lp1739
S'CYSTL'
p1740
atRp1741
sS'b3634'
p1742
g5
((lp1743
S'PTPATi'
p1744
atRp1745
sS'b3189'
p1746
g5
((lp1747
S'UAGCVT'
p1748
atRp1749
sS'b3040'
p1750
g5
((lp1751
S'CU2tpp'
p1752
aS'MN2tpp'
p1753
aS'ZN2tpp'
p1754
ag530
aS'FE2tpp'
p1755
atRp1756
sS'b3517'
p1757
g5
((lp1758
g1717
atRp1759
sS'b0088'
p1760
g5
((lp1761
S'UAMAGS'
p1762
atRp1763
sS'b3991'
p1764
g5
((lp1765
S'TYRL'
p1766
atRp1767
sS'b1761'
p1768
g5
((lp1769
S'GLUDy_reverse'
p1770
atRp1771
sS'b0963'
p1772
g5
((lp1773
S'MGSA'
p1774
atRp1775
sS'b2316'
p1776
g5
((lp1777
g341
atRp1778
sS'b0142'
p1779
g5
((lp1780
S'HPPK2'
p1781
atRp1782
sS'b4193'
p1783
g5
((lp1784
S'ASCBptspp'
p1785
atRp1786
sS'b4192'
p1787
g5
((lp1788
S'ASCBPL'
p1789
atRp1790
sS'b4195'
p1791
g5
((lp1792
g1785
atRp1793
sS'b4194'
p1794
g5
((lp1795
g1785
atRp1796
sS'b4197'
p1797
g5
((lp1798
S'X5PL3E'
p1799
atRp1800
sS'b4196'
p1801
g5
((lp1802
g661
atRp1803
sS'b4198'
p1804
g5
((lp1805
g847
atRp1806
sS'b1710'
p1807
g5
((lp1808
g188
atRp1809
sS'b0149'
p1810
g5
((lp1811
g15
ag1015
ag718
atRp1812
sS'b3608'
p1813
g5
((lp1814
S'G3PD2_reverse'
p1815
atRp1816
sS'b3919'
p1817
g5
((lp1818
S'TPI'
p1819
atRp1820
sS'b3946'
p1821
g5
((lp1822
S'F6PA'
p1823
atRp1824
sS'b3417'
p1825
g5
((lp1826
S'MLTP3_reverse'
p1827
atRp1828
sS'b3941'
p1829
g5
((lp1830
S'MTHFR2'
p1831
atRp1832
sS'b3940'
p1833
g5
((lp1834
g27
ag28
atRp1835
sS'b2416'
p1836
g5
((lp1837
S'DHAPT'
p1838
ag1785
atRp1839
sS'b2414'
p1840
g5
((lp1841
S'CYSS'
p1842
atRp1843
sS'b2415'
p1844
g5
((lp1845
g1838
ag1785
atRp1846
sS'b0783'
p1847
g5
((lp1848
g1546
atRp1849
sS'b3781'
p1850
g5
((lp1851
g188
ag189
ag190
ag191
ag192
atRp1852
sS'b0048'
p1853
g5
((lp1854
g607
atRp1855
sS'b2963'
p1856
g5
((lp1857
g556
atRp1858
sS'b4039'
p1859
g5
((lp1860
S'CHRPL'
p1861
atRp1862
sS'b1484'
p1863
g5
((lp1864
g415
atRp1865
sS'b2097'
p1866
g5
((lp1867
g32
atRp1868
sS'b1485'
p1869
g5
((lp1870
g415
atRp1871
sS'b0339'
p1872
g5
((lp1873
g764
atRp1874
sS'b0915'
p1875
g5
((lp1876
S'TDSK'
p1877
atRp1878
sS'b0914'
p1879
g5
((lp1880
S'PE161abcpp'
p1881
aS'K2L4Aabcpp'
p1882
aS'PE160abcpp'
p1883
atRp1884
sS'b1487'
p1885
g5
((lp1886
g415
atRp1887
sS'b0910'
p1888
g5
((lp1889
S'CYTK1'
p1890
ag459
atRp1891
sS'b2564'
p1892
g5
((lp1893
g525
atRp1894
sS'b0918'
p1895
g5
((lp1896
S'KDOCT2'
p1897
atRp1898
sS'b1069'
p1899
g5
((lp1900
g15
atRp1901
sS'b1062'
p1902
g5
((lp1903
S'DHORTS_reverse'
p1904
atRp1905
sS'b3772'
p1906
g5
((lp1907
g1199
atRp1908
sS'b3403'
p1909
g5
((lp1910
S'PPCK'
p1911
atRp1912
sS'b3774'
p1913
g5
((lp1914
S'KARA2'
p1915
ag463
aS'KARA1_reverse'
p1916
atRp1917
sS'b2895'
p1918
g5
((lp1919
g49
ag367
ag270
ag368
ag369
atRp1920
sS'b2026'
p1921
g5
((lp1922
S'PRAMPC'
p1923
aS'PRATPP'
p1924
atRp1925
sS'b2025'
p1926
g5
((lp1927
S'IG3PS'
p1928
atRp1929
sS'b2868'
p1930
g5
((lp1931
g861
ag862
atRp1932
sS'b2023'
p1933
g5
((lp1934
g1928
atRp1935
sS'b2022'
p1936
g5
((lp1937
S'HISTP'
p1938
aS'IGPDH'
p1939
atRp1940
sS'b2021'
p1941
g5
((lp1942
S'HSTPT'
p1943
atRp1944
sS'b2020'
p1945
g5
((lp1946
S'HISTD'
p1947
atRp1948
sS'b2029'
p1949
g5
((lp1950
S'GND'
p1951
atRp1952
sS'b1208'
p1953
g5
((lp1954
S'CDPMEK'
p1955
atRp1956
sS'b2813'
p1957
g5
((lp1958
g556
atRp1959
sS'b1200'
p1960
g5
((lp1961
g1838
atRp1962
sS'b1611'
p1963
g5
((lp1964
g980
atRp1965
sS'b1207'
p1966
g5
((lp1967
S'PRPPS'
p1968
atRp1969
sS'b1612'
p1970
g5
((lp1971
g980
atRp1972
sS'b1198'
p1973
g5
((lp1974
g1838
atRp1975
sS'b1199'
p1976
g5
((lp1977
g1838
atRp1978
sS'b1193'
p1979
g5
((lp1980
g556
atRp1981
sS'b1190'
p1982
g5
((lp1983
g1238
atRp1984
sS'b2817'
p1985
g5
((lp1986
g751
atRp1987
sS'b1291'
p1988
g5
((lp1989
g599
atRp1990
sS'b0822'
p1991
g5
((lp1992
S'G3PT'
p1993
atRp1994
sS'b0825'
p1995
g5
((lp1996
g1823
atRp1997
sS'b3956'
p1998
g5
((lp1999
S'PPC'
p2000
atRp2001
sS'b0827'
p2002
g5
((lp2003
S'BMOCOS'
p2004
aS'MOCOS'
p2005
atRp2006
sS'b0826'
p2007
g5
((lp2008
S'MPTSS'
p2009
atRp2010
sS'b3008'
p2011
g5
((lp2012
g1740
atRp2013
sS'b2423'
p2014
g5
((lp2015
g506
atRp2016
sS'b1849'
p2017
g5
((lp2018
S'GART'
p2019
ag1195
atRp2020
sS'b2422'
p2021
g5
((lp2022
g506
atRp2023
sS'b1662'
p2024
g5
((lp2025
S'RBFSb'
p2026
atRp2027
sS'b2421'
p2028
g5
((lp2029
g1842
atRp2030
sS'b4233'
p2031
g5
((lp2032
S'UM3PL'
p2033
atRp2034
sS'b3187'
p2035
g5
((lp2036
S'OCTDPS'
p2037
atRp2038
sS'b0133'
p2039
g5
((lp2040
S'PANTS'
p2041
atRp2042
sS'b1215'
p2043
g5
((lp2044
S'KDOPS'
p2045
atRp2046
sS'b0131'
p2047
g5
((lp2048
S'ASP1DC'
p2049
atRp2050
sS'b3633'
p2051
g5
((lp2052
S'MOAT2'
p2053
aS'MOAT'
p2054
atRp2055
sS'b0134'
p2056
g5
((lp2057
S'MOHMT'
p2058
atRp2059
sS'b4395'
p2060
g5
((lp2061
g1184
atRp2062
sS'b4392'
p2063
g5
((lp2064
g556
atRp2065
sS'b4254'
p2066
g5
((lp2067
g1255
atRp2068
sS'b4237'
p2069
g5
((lp2070
g367
ag368
atRp2071
sS'b2329'
p2072
g5
((lp2073
S'CHORS'
p2074
atRp2075
sS'b2320'
p2076
g5
((lp2077
S'PERD'
p2078
atRp2079
sS'b2323'
p2080
g5
((lp2081
S'OPMEACPS'
p2082
ag216
ag217
atRp2083
sS'b3648'
p2084
g5
((lp2085
S'GK1'
p2086
atRp2087
sS'b3640'
p2088
g5
((lp2089
g400
atRp2090
sS'b3642'
p2091
g5
((lp2092
S'ORPT_reverse'
p2093
atRp2094
ssS'GLYC_BATCH_mu=0.47_S'
p2095
(dp2096
g13
g5
((lp2097
g15
atRp2098
sg17
g5
((lp2099
g19
atRp2100
sg21
g5
((lp2101
g23
atRp2102
sg25
g5
((lp2103
g27
ag28
atRp2104
sg30
g5
((lp2105
S'FBA3'
p2106
aS'FBA_reverse'
p2107
atRp2108
sg34
g5
((lp2109
g36
ag37
atRp2110
sg39
g5
((lp2111
g41
atRp2112
sg43
g5
((lp2113
g45
atRp2114
sg47
g5
((lp2115
g49
atRp2116
sg51
g5
((lp2117
g53
ag54
atRp2118
sg56
g5
((lp2119
g58
ag59
ag60
ag61
aS'NDPK7'
p2120
ag62
ag63
atRp2121
sg65
g5
((lp2122
g67
atRp2123
sg69
g5
((lp2124
g71
atRp2125
sg73
g5
((lp2126
g75
atRp2127
sg77
g5
((lp2128
g79
ag80
ag81
ag82
ag83
ag84
ag85
ag86
ag87
ag89
ag92
aS'PROtex_reverse'
p2129
ag93
ag94
aS'GLYCtex'
p2130
ag95
ag97
ag99
ag98
ag101
ag102
ag103
ag104
atRp2131
sg106
g5
((lp2132
S'MDH2'
p2133
atRp2134
sg110
g5
((lp2135
g112
atRp2136
sg114
g5
((lp2137
g116
atRp2138
sg118
g5
((lp2139
g120
atRp2140
sg122
g5
((lp2141
g124
atRp2142
sg126
g5
((lp2143
g128
ag129
atRp2144
sg131
g5
((lp2145
g112
atRp2146
sg134
g5
((lp2147
g112
atRp2148
sg137
g5
((lp2149
g112
atRp2150
sg140
g5
((lp2151
g142
ag143
atRp2152
sg145
g5
((lp2153
g112
atRp2154
sg536
g5
((lp2155
g112
atRp2156
sg152
g5
((lp2157
g154
atRp2158
sg156
g5
((lp2159
g158
ag159
atRp2160
sg161
g5
((lp2161
g163
ag164
atRp2162
sg166
g5
((lp2163
g163
ag164
atRp2164
sg169
g5
((lp2165
g171
atRp2166
sg173
g5
((lp2167
g175
ag176
atRp2168
sg178
g5
((lp2169
S'PFK_3'
p2170
ag180
atRp2171
sg701
g5
((lp2172
g506
atRp2173
sg186
g5
((lp2174
g189
ag190
aS'RNDR3'
p2175
ag192
ag191
atRp2176
sg194
g5
((lp2177
g196
atRp2178
sg198
g5
((lp2179
g200
atRp2180
sg202
g5
((lp2181
g204
atRp2182
sg1757
g5
((lp2183
g1717
atRp2184
sg210
g5
((lp2185
g212
atRp2186
sg214
g5
((lp2187
g217
atRp2188
sg219
g5
((lp2189
g221
ag222
ag223
ag225
ag226
ag227
ag228
atRp2190
sg230
g5
((lp2191
g232
ag233
ag234
atRp2192
sg237
g5
((lp2193
g223
atRp2194
sg240
g5
((lp2195
g242
atRp2196
sg244
g5
((lp2197
g246
atRp2198
sg248
g5
((lp2199
g250
ag251
atRp2200
sg253
g5
((lp2201
g256
ag257
ag258
atRp2202
sg260
g5
((lp2203
g262
atRp2204
sg264
g5
((lp2205
g266
atRp2206
sg268
g5
((lp2207
g270
atRp2208
sg272
g5
((lp2209
g274
atRp2210
sg276
g5
((lp2211
g278
atRp2212
sg280
g5
((lp2213
g282
atRp2214
sg284
g5
((lp2215
g286
atRp2216
sg288
g5
((lp2217
g290
atRp2218
sg292
g5
((lp2219
g294
atRp2220
sg296
g5
((lp2221
g298
atRp2222
sg300
g5
((lp2223
g79
ag80
ag81
ag82
ag83
ag84
ag85
ag86
ag87
ag89
ag92
ag2129
ag93
ag94
ag2130
ag95
ag97
ag99
ag98
ag101
ag102
ag103
ag104
atRp2224
sg303
g5
((lp2225
g305
atRp2226
sg307
g5
((lp2227
g309
atRp2228
sg315
g5
((lp2229
g317
atRp2230
sg319
g5
((lp2231
g321
atRp2232
sg323
g5
((lp2233
g325
atRp2234
sg327
g5
((lp2235
g329
atRp2236
sg331
g5
((lp2237
g333
atRp2238
sg335
g5
((lp2239
g337
aS'THRA2i'
p2240
atRp2241
sg339
g5
((lp2242
g341
atRp2243
sg343
g5
((lp2244
g341
atRp2245
sg346
g5
((lp2246
g348
atRp2247
sg350
g5
((lp2248
g352
atRp2249
sg354
g5
((lp2250
g356
atRp2251
sg358
g5
((lp2252
g360
atRp2253
sg362
g5
((lp2254
g2107
atRp2255
sg365
g5
((lp2256
g49
ag367
ag270
ag369
atRp2257
sg371
g5
((lp2258
g75
ag373
atRp2259
sg375
g5
((lp2260
g377
atRp2261
sg379
g5
((lp2262
g381
atRp2263
sg383
g5
((lp2264
g385
atRp2265
sg387
g5
((lp2266
g389
atRp2267
sg1776
g5
((lp2268
g341
atRp2269
sg394
g5
((lp2270
g396
atRp2271
sg398
g5
((lp2272
g400
atRp2273
sg402
g5
((lp2274
g112
atRp2275
sg405
g5
((lp2276
g407
ag408
atRp2277
sg410
g5
((lp2278
g407
ag408
atRp2279
sg391
g5
((lp2280
g112
atRp2281
sg417
g5
((lp2282
g112
atRp2283
sg420
g5
((lp2284
g422
atRp2285
sg427
g5
((lp2286
g429
ag430
ag431
ag432
atRp2287
sg434
g5
((lp2288
g436
ag437
atRp2289
sg439
g5
((lp2290
g441
ag442
atRp2291
sg444
g5
((lp2292
g446
atRp2293
sg448
g5
((lp2294
g450
atRp2295
sg457
g5
((lp2296
g459
atRp2297
sg461
g5
((lp2298
g463
atRp2299
sg465
g5
((lp2300
g360
atRp2301
sg468
g5
((lp2302
g266
atRp2303
sg471
g5
((lp2304
g473
ag474
atRp2305
sg476
g5
((lp2306
g478
atRp2307
sg480
g5
((lp2308
g482
atRp2309
sg484
g5
((lp2310
g486
atRp2311
sg488
g5
((lp2312
g490
atRp2313
sg492
g5
((lp2314
g494
atRp2315
sg496
g5
((lp2316
g498
atRp2317
sg500
g5
((lp2318
g502
atRp2319
sg504
g5
((lp2320
g506
atRp2321
sg508
g5
((lp2322
g506
atRp2323
sg514
g5
((lp2324
g516
ag517
atRp2325
sg519
g5
((lp2326
g521
atRp2327
sg523
g5
((lp2328
g525
atRp2329
sg527
g5
((lp2330
g529
ag530
atRp2331
sS'b3927'
p2332
g5
((lp2333
S'GLYCtpp_reverse'
p2334
atRp2335
sg539
g5
((lp2336
g541
atRp2337
sg543
g5
((lp2338
g545
atRp2339
sg547
g5
((lp2340
g266
atRp2341
sg550
g5
((lp2342
g552
atRp2343
sg558
g5
((lp2344
g560
atRp2345
sg562
g5
((lp2346
g564
atRp2347
sg566
g5
((lp2348
g337
ag2240
aS'GHMT2r_reverse'
p2349
atRp2350
sg573
g5
((lp2351
g575
ag576
ag577
ag552
ag579
ag2334
ag580
ag541
ag333
ag581
ag582
atRp2352
sS'b3925'
p2353
g5
((lp2354
S'FBP'
p2355
atRp2356
sg584
g5
((lp2357
g367
ag369
atRp2358
sg587
g5
((lp2359
g589
ag590
ag591
ag592
ag593
ag594
ag595
atRp2360
sS'b3926'
p2361
g5
((lp2362
S'GLYK'
p2363
atRp2364
sg597
g5
((lp2365
g599
atRp2366
sg605
g5
((lp2367
g607
atRp2368
sg619
g5
((lp2369
g621
atRp2370
sg623
g5
((lp2371
g625
atRp2372
sg630
g5
((lp2373
g632
ag633
atRp2374
sg635
g5
((lp2375
g637
atRp2376
sg639
g5
((lp2377
S'PPPGO'
p2378
atRp2379
sg643
g5
((lp2380
g645
atRp2381
sg651
g5
((lp2382
g653
atRp2383
sg655
g5
((lp2384
g657
atRp2385
sg663
g5
((lp2386
g665
atRp2387
sg667
g5
((lp2388
g669
atRp2389
sS'b4381'
p2390
g5
((lp2391
S'DRPA'
p2392
atRp2393
sg676
g5
((lp2394
S'PPM2'
p2395
ag381
atRp2396
sg679
g5
((lp2397
S'PUNP3_reverse'
p2398
aS'PUNP4'
p2399
ag681
atRp2400
sg683
g5
((lp2401
g685
atRp2402
sg687
g5
((lp2403
g657
atRp2404
sg690
g5
((lp2405
g657
atRp2406
sg704
g5
((lp2407
g706
atRp2408
sg1438
g5
((lp2409
g1440
atRp2410
sg716
g5
((lp2411
g718
atRp2412
sg720
g5
((lp2413
g191
atRp2414
sg723
g5
((lp2415
g725
atRp2416
sg727
g5
((lp2417
g222
ag226
atRp2418
sg730
g5
((lp2419
g732
atRp2420
sg738
g5
((lp2421
g740
atRp2422
sg742
g5
((lp2423
g744
atRp2424
sg746
g5
((lp2425
g645
atRp2426
sg757
g5
((lp2427
g759
ag760
atRp2428
sg762
g5
((lp2429
g764
atRp2430
sg770
g5
((lp2431
g772
atRp2432
sg774
g5
((lp2433
g599
atRp2434
sg777
g5
((lp2435
g779
atRp2436
sg781
g5
((lp2437
g783
atRp2438
sg785
g5
((lp2439
g787
atRp2440
sg789
g5
((lp2441
g791
atRp2442
sg793
g5
((lp2443
g718
atRp2444
sg796
g5
((lp2445
g798
ag799
ag800
ag564
ag801
ag802
ag803
atRp2446
sg805
g5
((lp2447
g807
atRp2448
sg809
g5
((lp2449
g811
ag812
ag813
ag814
ag815
ag816
ag817
ag818
ag819
ag820
ag821
ag822
ag823
ag824
atRp2450
sg1386
g5
((lp2451
g1388
atRp2452
sg830
g5
((lp2453
g832
atRp2454
sg834
g5
((lp2455
g811
ag812
ag813
ag814
ag815
ag816
ag817
ag818
ag819
ag820
ag821
ag822
ag823
ag824
ag836
atRp2456
sg838
g5
((lp2457
g840
atRp2458
sg842
g5
((lp2459
g798
ag799
ag800
ag564
ag801
ag802
ag803
atRp2460
sg849
g5
((lp2461
g377
atRp2462
sg852
g5
((lp2463
g329
atRp2464
sg855
g5
((lp2465
g857
atRp2466
sg859
g5
((lp2467
g861
ag862
atRp2468
sg864
g5
((lp2469
g861
ag862
atRp2470
sg867
g5
((lp2471
g869
atRp2472
sg871
g5
((lp2473
g599
atRp2474
sg874
g5
((lp2475
g876
atRp2476
sg878
g5
((lp2477
g880
atRp2478
sg882
g5
((lp2479
g884
atRp2480
sg886
g5
((lp2481
g888
atRp2482
sg890
g5
((lp2483
g892
atRp2484
sg894
g5
((lp2485
g896
atRp2486
sg898
g5
((lp2487
g892
atRp2488
sg901
g5
((lp2489
g903
atRp2490
sg905
g5
((lp2491
g907
ag908
atRp2492
sg910
g5
((lp2493
g912
atRp2494
sg914
g5
((lp2495
g916
atRp2496
sS'b0727'
p2497
g5
((lp2498
S'AKGDH'
p2499
atRp2500
sg921
g5
((lp2501
g621
atRp2502
sg924
g5
((lp2503
g892
atRp2504
sg930
g5
((lp2505
g189
atRp2506
sg933
g5
((lp2507
g935
atRp2508
sg937
g5
((lp2509
g935
atRp2510
sg708
g5
((lp2511
g710
atRp2512
sg712
g5
((lp2513
g714
atRp2514
sg609
g5
((lp2515
g506
atRp2516
sg627
g5
((lp2517
g506
atRp2518
sg952
g5
((lp2519
g954
atRp2520
sg956
g5
((lp2521
g506
atRp2522
sg959
g5
((lp2523
g961
ag962
atRp2524
sg753
g5
((lp2525
g755
ag710
atRp2526
sg971
g5
((lp2527
g973
atRp2528
sg975
g5
((lp2529
g621
atRp2530
sg978
g5
((lp2531
g980
atRp2532
sg982
g5
((lp2533
g984
ag985
atRp2534
sg988
g5
((lp2535
g990
atRp2536
sg992
g5
((lp2537
g990
atRp2538
sg995
g5
((lp2539
g2499
ag990
atRp2540
sg998
g5
((lp2541
g1000
atRp2542
sg1002
g5
((lp2543
g1004
atRp2544
sg1006
g5
((lp2545
g54
atRp2546
sg1009
g5
((lp2547
g1011
atRp2548
sg1013
g5
((lp2549
g15
ag718
atRp2550
sg1017
g5
((lp2551
g1019
atRp2552
sg1021
g5
((lp2553
g1023
atRp2554
sg1411
g5
((lp2555
g454
ag455
atRp2556
sg1029
g5
((lp2557
g454
ag455
atRp2558
sg1032
g5
((lp2559
g454
ag455
atRp2560
sg1035
g5
((lp2561
g454
ag455
atRp2562
sg1427
g5
((lp2563
g454
ag455
atRp2564
sg1041
g5
((lp2565
g454
ag455
atRp2566
sg452
g5
((lp2567
g454
ag455
atRp2568
sg1442
g5
((lp2569
g502
atRp2570
sg1051
g5
((lp2571
g1053
atRp2572
sg1055
g5
((lp2573
g454
ag455
atRp2574
sg1058
g5
((lp2575
g892
ag1060
ag1061
ag1062
ag1063
ag1064
atRp2576
sg1066
g5
((lp2577
g1068
ag1069
atRp2578
sg1075
g5
((lp2579
g1077
atRp2580
sg1506
g5
((lp2581
g1508
atRp2582
sg1082
g5
((lp2583
g1084
ag1085
atRp2584
sg1521
g5
((lp2585
g221
atRp2586
sg1090
g5
((lp2587
g1092
atRp2588
sg1137
g5
((lp2589
g1139
atRp2590
sg1098
g5
((lp2591
g1100
ag1101
atRp2592
sg1103
g5
((lp2593
g1062
ag1061
atRp2594
sg1106
g5
((lp2595
g1108
atRp2596
sg1110
g5
((lp2597
g1112
atRp2598
sg1117
g5
((lp2599
g740
atRp2600
sg1120
g5
((lp2601
g190
ag2175
ag192
atRp2602
sg1123
g5
((lp2603
g190
ag2175
ag192
atRp2604
sg1126
g5
((lp2605
g1128
atRp2606
sg1130
g5
((lp2607
g1132
atRp2608
sg1134
g5
((lp2609
g1128
atRp2610
sg1153
g5
((lp2611
g341
atRp2612
sg1156
g5
((lp2613
g1158
atRp2614
sg1163
g5
((lp2615
g1165
atRp2616
sg1167
g5
((lp2617
g534
atRp2618
sg1173
g5
((lp2619
g657
atRp2620
sg1176
g5
((lp2621
g154
atRp2622
sg1179
g5
((lp2623
g552
atRp2624
sg1182
g5
((lp2625
g1184
atRp2626
sg1186
g5
((lp2627
g1188
atRp2628
sg1190
g5
((lp2629
g266
atRp2630
sg1193
g5
((lp2631
g1195
atRp2632
sg1197
g5
((lp2633
g1199
atRp2634
sg1201
g5
((lp2635
g599
atRp2636
sg1204
g5
((lp2637
g1206
atRp2638
sg1208
g5
((lp2639
g1206
atRp2640
sg1211
g5
((lp2641
g1213
atRp2642
sg1215
g5
((lp2643
g1206
atRp2644
sS'b0726'
p2645
g5
((lp2646
g2499
atRp2647
sg1218
g5
((lp2648
g1220
atRp2649
sg1222
g5
((lp2650
g1206
atRp2651
sg1225
g5
((lp2652
S'SUCOAS_reverse'
p2653
atRp2654
sg1229
g5
((lp2655
g2653
atRp2656
sS'b3500'
p2657
g5
((lp2658
S'GTHOr'
p2659
atRp2660
sg1232
g5
((lp2661
g1234
atRp2662
sg1236
g5
((lp2663
g1238
atRp2664
sg1240
g5
((lp2665
g429
ag1242
ag431
atRp2666
sS'b0477'
p2667
g5
((lp2668
S'GSNK'
p2669
atRp2670
sg1244
g5
((lp2671
g1246
ag58
ag59
ag1247
ag60
ag61
ag2120
ag62
ag63
atRp2672
sg1249
g5
((lp2673
g1251
atRp2674
sg1253
g5
((lp2675
g1255
atRp2676
sg1257
g5
((lp2677
g1259
atRp2678
sS'b4111'
p2679
g5
((lp2680
S'PROt2rpp_reverse'
p2681
atRp2682
sg1261
g5
((lp2683
g1263
atRp2684
sg1265
g5
((lp2685
g984
ag985
atRp2686
sg1268
g5
((lp2687
g454
ag455
atRp2688
sg1271
g5
((lp2689
g454
ag455
atRp2690
sg1274
g5
((lp2691
g454
ag455
atRp2692
sg1277
g5
((lp2693
g454
ag455
atRp2694
sS'b0979'
p2695
g5
((lp2696
S'CYTBD2pp'
p2697
atRp2698
sS'b0978'
p2699
g5
((lp2700
g2697
atRp2701
sg1280
g5
((lp2702
g657
atRp2703
sg1283
g5
((lp2704
g973
atRp2705
sg1286
g5
((lp2706
g1288
atRp2707
sg1290
g5
((lp2708
g1292
atRp2709
sg1294
g5
((lp2710
g1296
atRp2711
sg1298
g5
((lp2712
g1300
atRp2713
sg1302
g5
((lp2714
g1304
ag1305
atRp2715
sg1307
g5
((lp2716
g1309
atRp2717
sg1311
g5
((lp2718
g1313
atRp2719
sg1315
g5
((lp2720
g1317
atRp2721
sg1319
g5
((lp2722
g116
atRp2723
sg1322
g5
((lp2724
g1324
atRp2725
sS'b2407'
p2726
g5
((lp2727
g2398
ag2399
atRp2728
sg1326
g5
((lp2729
g1328
atRp2730
sg1330
g5
((lp2731
S'PGI_reverse'
p2732
atRp2733
sg1334
g5
((lp2734
g407
ag408
atRp2735
sg1337
g5
((lp2736
g1339
atRp2737
sg1341
g5
((lp2738
g1343
atRp2739
sg1345
g5
((lp2740
S'GLYCTO3'
p2741
atRp2742
sg1349
g5
((lp2743
g1351
atRp2744
sg1353
g5
((lp2745
g552
atRp2746
sg1356
g5
((lp2747
g1358
ag1359
atRp2748
sS'b2975'
p2749
g5
((lp2750
S'GLYCLTt2rpp_reverse'
p2751
atRp2752
sg1365
g5
((lp2753
g1092
atRp2754
sg1368
g5
((lp2755
g407
ag408
atRp2756
sg1371
g5
((lp2757
g1373
atRp2758
sg1375
g5
((lp2759
g28
atRp2760
sg1378
g5
((lp2761
g1380
atRp2762
sg1382
g5
((lp2763
g1384
atRp2764
sg1576
g5
((lp2765
g1313
atRp2766
sg1394
g5
((lp2767
g266
atRp2768
sg1397
g5
((lp2769
g1358
ag1359
atRp2770
sg1400
g5
((lp2771
g1402
atRp2772
sg1404
g5
((lp2773
g1011
atRp2774
sg1407
g5
((lp2775
g1409
atRp2776
sg1025
g5
((lp2777
g1027
atRp2778
sg1414
g5
((lp2779
g1416
atRp2780
sg1421
g5
((lp2781
g669
atRp2782
sg1361
g5
((lp2783
g1363
atRp2784
sg1424
g5
((lp2785
g545
atRp2786
sg1038
g5
((lp2787
g502
atRp2788
sg1430
g5
((lp2789
g1432
atRp2790
sg1434
g5
((lp2791
g1436
atRp2792
sg1114
g5
((lp2793
g454
ag455
atRp2794
sg1445
g5
((lp2795
g1447
atRp2796
sg1449
g5
((lp2797
g196
atRp2798
sg1452
g5
((lp2799
g367
atRp2800
sg1463
g5
((lp2801
g1465
atRp2802
sS'b4232'
p2803
g5
((lp2804
g2355
atRp2805
sg1467
g5
((lp2806
g1469
atRp2807
sg2043
g5
((lp2808
g2045
atRp2809
sg1474
g5
((lp2810
g1184
atRp2811
sg1477
g5
((lp2812
g154
atRp2813
sg1480
g5
((lp2814
g954
atRp2815
sg1044
g5
((lp2816
g502
atRp2817
sg1483
g5
((lp2818
g892
atRp2819
sg1486
g5
((lp2820
g1488
ag1489
atRp2821
sg1491
g5
((lp2822
g1493
atRp2823
sg1495
g5
((lp2824
g1497
atRp2825
sg1499
g5
((lp2826
g1501
atRp2827
sg1503
g5
((lp2828
g313
atRp2829
sg311
g5
((lp2830
g313
atRp2831
sg1510
g5
((lp2832
g1512
atRp2833
sg1517
g5
((lp2834
g1519
atRp2835
sg1524
g5
((lp2836
g1296
atRp2837
sg1527
g5
((lp2838
g1529
atRp2839
sg1531
g5
((lp2840
g1533
atRp2841
sg1535
g5
((lp2842
g1537
atRp2843
sg1539
g5
((lp2844
g1541
ag1542
atRp2845
sg647
g5
((lp2846
g649
atRp2847
sg1548
g5
((lp2848
g649
atRp2849
sg1760
g5
((lp2850
g1762
atRp2851
sg1572
g5
((lp2852
g1574
atRp2853
sg1390
g5
((lp2854
g1392
atRp2855
sg826
g5
((lp2856
g828
atRp2857
sS'b2930'
p2858
g5
((lp2859
g2355
atRp2860
sg1583
g5
((lp2861
g1585
atRp2862
sg1587
g5
((lp2863
g1589
ag1139
ag1590
atRp2864
sg1592
g5
((lp2865
g907
ag908
atRp2866
sg1595
g5
((lp2867
g1597
ag1598
atRp2868
sg1600
g5
((lp2869
g1597
ag1602
ag1060
ag1061
ag1598
ag1062
atRp2870
sg1604
g5
((lp2871
g1606
atRp2872
sg1608
g5
((lp2873
g1195
atRp2874
sg1611
g5
((lp2875
g204
atRp2876
sg1614
g5
((lp2877
g1288
atRp2878
sS'b2291'
p2879
g5
((lp2880
S'NTD8'
p2881
atRp2882
sg1617
g5
((lp2883
g225
ag227
ag228
atRp2884
sg1620
g5
((lp2885
g1606
atRp2886
sg967
g5
((lp2887
g969
atRp2888
sS'b4067'
p2889
g5
((lp2890
S'GLYCLTt4pp'
p2891
atRp2892
sg1627
g5
((lp2893
g1343
atRp2894
sg1630
g5
((lp2895
g429
ag1242
ag1632
atRp2896
sg1634
g5
((lp2897
g79
ag80
ag81
ag82
ag83
ag84
ag85
ag86
ag87
ag89
ag92
ag2129
ag93
ag94
ag2130
ag95
ag97
ag99
ag98
ag101
ag102
ag103
ag104
atRp2898
sg1637
g5
((lp2899
g912
atRp2900
sg1640
g5
((lp2901
g1642
atRp2902
sg1644
g5
((lp2903
g1646
atRp2904
sS'b2744'
p2905
g5
((lp2906
g2881
atRp2907
sg1648
g5
((lp2908
g116
atRp2909
sg1651
g5
((lp2910
g79
ag80
ag81
ag82
ag83
ag84
ag85
ag86
ag87
ag89
ag92
ag2129
ag93
ag94
ag2130
ag95
ag97
ag99
ag98
ag101
ag102
ag103
ag104
atRp2911
sg1654
g5
((lp2912
g158
ag1656
atRp2913
sg1658
g5
((lp2914
g1660
atRp2915
sg1662
g5
((lp2916
g196
atRp2917
sg1665
g5
((lp2918
g2741
atRp2919
sg1672
g5
((lp2920
g2741
atRp2921
sg1675
g5
((lp2922
g196
atRp2923
sg1678
g5
((lp2924
g725
atRp2925
sg1684
g5
((lp2926
g1686
ag1687
atRp2927
sg1689
g5
((lp2928
g1691
atRp2929
sg1807
g5
((lp2930
S'GTHPi'
p2931
atRp2932
sg1544
g5
((lp2933
g1546
atRp2934
sg1847
g5
((lp2935
g1546
atRp2936
sg1705
g5
((lp2937
g1063
ag1707
atRp2938
sg1709
g5
((lp2939
g1707
atRp2940
sg1712
g5
((lp2941
g360
ag482
atRp2942
sg1715
g5
((lp2943
g1717
atRp2944
sg1719
g5
((lp2945
g1721
atRp2946
sg1723
g5
((lp2947
g599
atRp2948
sg1726
g5
((lp2949
g1728
atRp2950
sg1730
g5
((lp2951
g1732
ag1733
atRp2952
sg1735
g5
((lp2953
g1542
atRp2954
sg1738
g5
((lp2955
g1740
atRp2956
sg1746
g5
((lp2957
g1748
atRp2958
sg1750
g5
((lp2959
g1752
ag1754
ag530
ag1755
atRp2960
sg206
g5
((lp2961
g208
atRp2962
sS'b2392'
p2963
g5
((lp2964
S'MNt2pp'
p2965
atRp2966
sg1764
g5
((lp2967
g1766
atRp2968
sg1768
g5
((lp2969
g1770
atRp2970
sg532
g5
((lp2971
g534
atRp2972
sS'b2243'
p2973
g5
((lp2974
S'G3PD6'
p2975
atRp2976
sS'b2242'
p2977
g5
((lp2978
g2975
atRp2979
sS'b2241'
p2980
g5
((lp2981
g2975
atRp2982
sg1779
g5
((lp2983
g1781
atRp2984
sg601
g5
((lp2985
g603
atRp2986
sS'b3603'
p2987
g5
((lp2988
g2751
atRp2989
sg1810
g5
((lp2990
g15
ag718
atRp2991
sg1813
g5
((lp2992
S'G3PD2'
p2993
atRp2994
sg1817
g5
((lp2995
g1819
atRp2996
sg1821
g5
((lp2997
S'F6PA_reverse'
p2998
atRp2999
sg671
g5
((lp3000
g674
atRp3001
sg1829
g5
((lp3002
g1831
atRp3003
sg1833
g5
((lp3004
g27
ag28
atRp3005
sg1836
g5
((lp3006
g1838
atRp3007
sg1840
g5
((lp3008
g1842
atRp3009
sg1844
g5
((lp3010
g1838
atRp3011
sg766
g5
((lp3012
g768
atRp3013
sg1850
g5
((lp3014
g189
ag190
ag2175
ag192
ag191
atRp3015
sg1853
g5
((lp3016
g607
atRp3017
sg511
g5
((lp3018
g180
atRp3019
sg1859
g5
((lp3020
g1861
atRp3021
sg1866
g5
((lp3022
g2107
atRp3023
sg1872
g5
((lp3024
g764
atRp3025
sg1875
g5
((lp3026
g1877
atRp3027
sg1879
g5
((lp3028
g1881
ag1882
ag1883
atRp3029
sg1888
g5
((lp3030
g1890
ag459
atRp3031
sg1892
g5
((lp3032
g525
atRp3033
sg1895
g5
((lp3034
g1897
atRp3035
sg1899
g5
((lp3036
g15
atRp3037
sg1902
g5
((lp3038
g1904
atRp3039
sg1906
g5
((lp3040
g1199
atRp3041
sg1913
g5
((lp3042
g1915
ag463
ag1916
atRp3043
sg1918
g5
((lp3044
g49
ag367
ag270
ag369
atRp3045
sg1921
g5
((lp3046
g1923
ag1924
atRp3047
sg1926
g5
((lp3048
g1928
atRp3049
sg1930
g5
((lp3050
g861
ag862
atRp3051
sg1933
g5
((lp3052
g1928
atRp3053
sg1936
g5
((lp3054
g1938
ag1939
atRp3055
sg1941
g5
((lp3056
g1943
atRp3057
sg1945
g5
((lp3058
g1947
atRp3059
sg1949
g5
((lp3060
g1951
atRp3061
sg1953
g5
((lp3062
g1955
atRp3063
sg927
g5
((lp3064
g266
atRp3065
sg1960
g5
((lp3066
g1838
atRp3067
sg1963
g5
((lp3068
g980
atRp3069
sg1966
g5
((lp3070
g1968
atRp3071
sg1970
g5
((lp3072
g980
atRp3073
sg1973
g5
((lp3074
g1838
atRp3075
sg1976
g5
((lp3076
g1838
atRp3077
sg1982
g5
((lp3078
g1238
atRp3079
sg1988
g5
((lp3080
g599
atRp3081
sg1991
g5
((lp3082
g1993
atRp3083
sg1995
g5
((lp3084
g2998
atRp3085
sg1998
g5
((lp3086
g2000
atRp3087
sg2002
g5
((lp3088
g2004
ag2005
atRp3089
sg2007
g5
((lp3090
g2009
atRp3091
sg2011
g5
((lp3092
g1740
atRp3093
sg2014
g5
((lp3094
g506
atRp3095
sg2017
g5
((lp3096
g2019
ag1195
atRp3097
sg2021
g5
((lp3098
g506
atRp3099
sg2024
g5
((lp3100
g2026
atRp3101
sg2028
g5
((lp3102
g1842
atRp3103
sg2035
g5
((lp3104
g2037
atRp3105
sg2039
g5
((lp3106
g2041
atRp3107
sg1742
g5
((lp3108
g1744
atRp3109
sg2047
g5
((lp3110
g2049
atRp3111
sg2051
g5
((lp3112
g2053
ag2054
atRp3113
sg2056
g5
((lp3114
g2058
atRp3115
sg2060
g5
((lp3116
g1184
atRp3117
sg2066
g5
((lp3118
g1255
atRp3119
sg2069
g5
((lp3120
g367
atRp3121
sg2072
g5
((lp3122
g2074
atRp3123
sg2076
g5
((lp3124
g2078
atRp3125
sg2080
g5
((lp3126
g2082
ag217
atRp3127
sg2084
g5
((lp3128
g2086
aS'DGK1_reverse'
p3129
atRp3130
sg2088
g5
((lp3131
g400
atRp3132
sg2091
g5
((lp3133
g2093
atRp3134
ssS'FRU_BATCH_mu=0.65_S'
p3135
(dp3136
g9
g5
((lp3137
S'PGMT_reverse'
p3138
atRp3139
sg13
g5
((lp3140
g15
atRp3141
sg17
g5
((lp3142
g19
atRp3143
sg21
g5
((lp3144
g23
atRp3145
sg25
g5
((lp3146
g27
ag28
atRp3147
sg30
g5
((lp3148
g32
ag2106
atRp3149
sg34
g5
((lp3150
g36
ag37
atRp3151
sg39
g5
((lp3152
g41
atRp3153
sg43
g5
((lp3154
g45
atRp3155
sg47
g5
((lp3156
g49
atRp3157
sg51
g5
((lp3158
g53
ag54
atRp3159
sg56
g5
((lp3160
g58
ag59
ag60
ag62
ag63
atRp3161
sg65
g5
((lp3162
g67
atRp3163
sg69
g5
((lp3164
g71
atRp3165
sS'b4077'
p3166
g5
((lp3167
S'GLUt2rpp_reverse'
p3168
atRp3169
sg73
g5
((lp3170
g75
atRp3171
sg77
g5
((lp3172
S'CLtex'
p3173
aS'MEOHtex_reverse'
p3174
aS'MG2tex'
p3175
aS'CA2tex'
p3176
aS'PItex'
p3177
aS'NH4tex'
p3178
aS'Htex_reverse'
p3179
aS'O2tex'
p3180
aS'SO4tex'
p3181
aS'FRUtex'
p3182
aS'12PPDRtex_reverse'
p3183
aS'FORtex_reverse'
p3184
aS'ANHGMtex_reverse'
p3185
aS'AKGtex_reverse'
p3186
aS'FE2tex'
p3187
aS'ETOHtex_reverse'
p3188
ag552
aS'MOBDtex'
p3189
aS'Zn2tex'
p3190
aS'CO2tex_reverse'
p3191
aS'CU2tex'
p3192
aS'NI2tex'
p3193
aS'MNtex'
p3194
aS'COBALT2tex'
p3195
aS'Ktex'
p3196
aS'QUIN2tex_reverse'
p3197
aS'ACtex_reverse'
p3198
atRp3199
sg106
g5
((lp3200
g2133
atRp3201
sg110
g5
((lp3202
g112
atRp3203
sg114
g5
((lp3204
g116
atRp3205
sg118
g5
((lp3206
g120
atRp3207
sg122
g5
((lp3208
g124
atRp3209
sg126
g5
((lp3210
g128
ag129
atRp3211
sg131
g5
((lp3212
g112
atRp3213
sg134
g5
((lp3214
g112
atRp3215
sg137
g5
((lp3216
g112
atRp3217
sg140
g5
((lp3218
g142
ag143
atRp3219
sg145
g5
((lp3220
g112
atRp3221
sg536
g5
((lp3222
g112
atRp3223
sg152
g5
((lp3224
g154
atRp3225
sg156
g5
((lp3226
g158
ag159
atRp3227
sg161
g5
((lp3228
g163
ag164
atRp3229
sg166
g5
((lp3230
g163
ag164
atRp3231
sg169
g5
((lp3232
g171
atRp3233
sg173
g5
((lp3234
g175
ag176
atRp3235
sg178
g5
((lp3236
g2170
ag180
atRp3237
sg182
g5
((lp3238
g184
atRp3239
sg186
g5
((lp3240
g189
ag191
ag192
atRp3241
sg194
g5
((lp3242
g196
atRp3243
sS'b2463'
p3244
g5
((lp3245
S'ME2'
p3246
atRp3247
sg198
g5
((lp3248
g200
atRp3249
sS'b3786'
p3250
g5
((lp3251
S'UAG2E'
p3252
atRp3253
sg202
g5
((lp3254
S'PTAr'
p3255
atRp3256
sg210
g5
((lp3257
g212
atRp3258
sg214
g5
((lp3259
g217
atRp3260
sg219
g5
((lp3261
g221
ag222
ag223
ag225
ag226
ag227
aS'AACPS1'
p3262
ag228
atRp3263
sg230
g5
((lp3264
g232
ag233
ag234
atRp3265
sg237
g5
((lp3266
g223
atRp3267
sg240
g5
((lp3268
g242
atRp3269
sg244
g5
((lp3270
g246
atRp3271
sg248
g5
((lp3272
g250
ag251
atRp3273
sg253
g5
((lp3274
g256
ag257
aS'FACOAE140'
p3275
ag258
atRp3276
sg260
g5
((lp3277
g262
atRp3278
sg264
g5
((lp3279
g266
atRp3280
sg268
g5
((lp3281
g270
atRp3282
sg272
g5
((lp3283
g274
atRp3284
sg276
g5
((lp3285
g278
atRp3286
sg280
g5
((lp3287
g282
atRp3288
sg284
g5
((lp3289
g286
atRp3290
sg288
g5
((lp3291
g290
atRp3292
sg292
g5
((lp3293
g294
atRp3294
sg296
g5
((lp3295
g298
atRp3296
sg300
g5
((lp3297
g3173
ag3174
ag3175
ag3176
ag3177
ag3178
ag3179
ag3180
ag3181
ag3182
ag3183
ag3184
ag3185
ag3186
ag3187
ag3188
ag552
ag3189
ag3190
ag3191
ag3192
ag3193
ag3194
ag3195
ag3196
ag3197
ag3198
atRp3298
sg303
g5
((lp3299
g305
atRp3300
sg307
g5
((lp3301
g309
atRp3302
sg311
g5
((lp3303
g313
atRp3304
sg315
g5
((lp3305
g317
atRp3306
sg319
g5
((lp3307
g321
atRp3308
sg323
g5
((lp3309
g325
atRp3310
sg327
g5
((lp3311
g329
atRp3312
sg331
g5
((lp3313
g333
atRp3314
sg335
g5
((lp3315
g337
atRp3316
sg339
g5
((lp3317
g341
atRp3318
sg343
g5
((lp3319
g341
atRp3320
sg346
g5
((lp3321
g348
atRp3322
sg350
g5
((lp3323
g352
atRp3324
sg354
g5
((lp3325
g356
atRp3326
sg358
g5
((lp3327
g360
atRp3328
sg362
g5
((lp3329
g32
atRp3330
sS'b2041'
p3331
g5
((lp3332
S'TDPGDH'
p3333
atRp3334
sg365
g5
((lp3335
S'RNTR4c2'
p3336
ag367
ag369
ag368
ag49
ag270
atRp3337
sg371
g5
((lp3338
g75
ag373
atRp3339
sg375
g5
((lp3340
g377
atRp3341
sg379
g5
((lp3342
g381
atRp3343
sg383
g5
((lp3344
g385
atRp3345
sg387
g5
((lp3346
g389
atRp3347
sg391
g5
((lp3348
g112
atRp3349
sg394
g5
((lp3350
g396
atRp3351
sg398
g5
((lp3352
g400
atRp3353
sg402
g5
((lp3354
g112
atRp3355
sg405
g5
((lp3356
g407
ag408
atRp3357
sg410
g5
((lp3358
g407
ag408
atRp3359
sg413
g5
((lp3360
g415
atRp3361
sg417
g5
((lp3362
g112
atRp3363
sg420
g5
((lp3364
g422
atRp3365
sg424
g5
((lp3366
g415
atRp3367
sg427
g5
((lp3368
g429
ag430
ag431
ag432
atRp3369
sg434
g5
((lp3370
g436
ag437
atRp3371
sg439
g5
((lp3372
g441
ag442
atRp3373
sg444
g5
((lp3374
g446
atRp3375
sg448
g5
((lp3376
g450
atRp3377
sg452
g5
((lp3378
g454
ag455
atRp3379
sg457
g5
((lp3380
g459
atRp3381
sg461
g5
((lp3382
g463
atRp3383
sg465
g5
((lp3384
g360
atRp3385
sg468
g5
((lp3386
g266
atRp3387
sg471
g5
((lp3388
g473
ag474
atRp3389
sg476
g5
((lp3390
g478
atRp3391
sg480
g5
((lp3392
g482
atRp3393
sg484
g5
((lp3394
g486
atRp3395
sg488
g5
((lp3396
g490
atRp3397
sg492
g5
((lp3398
g494
atRp3399
sg496
g5
((lp3400
g498
atRp3401
sg500
g5
((lp3402
g502
atRp3403
sg504
g5
((lp3404
g506
atRp3405
sg508
g5
((lp3406
g506
atRp3407
sg511
g5
((lp3408
g180
atRp3409
sS'b3794'
p3410
g5
((lp3411
S'ACMAMUT'
p3412
atRp3413
sS'b3792'
p3414
g5
((lp3415
S'ECAtpp'
p3416
atRp3417
sg514
g5
((lp3418
g516
ag517
atRp3419
sg519
g5
((lp3420
g521
atRp3421
sS'b3791'
p3422
g5
((lp3423
S'TDPAGTA'
p3424
atRp3425
sg523
g5
((lp3426
g525
atRp3427
sg527
g5
((lp3428
g529
ag530
atRp3429
sg532
g5
((lp3430
g534
atRp3431
sS'b0222'
p3432
g5
((lp3433
S'S7PI'
p3434
atRp3435
sg539
g5
((lp3436
g541
atRp3437
sg543
g5
((lp3438
g545
atRp3439
sg547
g5
((lp3440
g266
atRp3441
sg550
g5
((lp3442
g552
atRp3443
sg554
g5
((lp3444
g556
atRp3445
sg558
g5
((lp3446
g560
atRp3447
sg562
g5
((lp3448
g564
atRp3449
sg566
g5
((lp3450
g337
ag2349
atRp3451
sg1438
g5
((lp3452
g1440
atRp3453
sS'b2040'
p3454
g5
((lp3455
S'TDPDRR'
p3456
atRp3457
sg573
g5
((lp3458
g575
ag576
ag577
ag578
ag552
ag579
ag580
ag541
ag333
ag581
ag582
atRp3459
sS'b1054'
p3460
g5
((lp3461
S'EDTXS1'
p3462
atRp3463
sg2353
g5
((lp3464
g2355
atRp3465
sg584
g5
((lp3466
g367
ag368
ag3336
ag369
atRp3467
sg587
g5
((lp3468
g589
ag590
ag591
ag592
ag593
ag594
ag595
atRp3469
sg597
g5
((lp3470
g599
atRp3471
sS'b2038'
p3472
g5
((lp3473
S'TDPDRE'
p3474
atRp3475
sS'b2039'
p3476
g5
((lp3477
S'G1PTT'
p3478
atRp3479
sg605
g5
((lp3480
g607
atRp3481
sg609
g5
((lp3482
g506
atRp3483
sg612
g5
((lp3484
g614
atRp3485
sg616
g5
((lp3486
g614
atRp3487
sg619
g5
((lp3488
S'UDCPDPpp'
p3489
ag621
atRp3490
sg623
g5
((lp3491
g625
atRp3492
sg627
g5
((lp3493
g506
atRp3494
sg630
g5
((lp3495
g632
ag633
atRp3496
sg635
g5
((lp3497
g637
atRp3498
sg639
g5
((lp3499
g641
atRp3500
sg647
g5
((lp3501
g649
atRp3502
sg651
g5
((lp3503
g653
atRp3504
sg655
g5
((lp3505
g657
aS'ECA4COLIPAabctex'
p3506
atRp3507
sS'b3628'
p3508
g5
((lp3509
S'GALT1'
p3510
atRp3511
sS'b3629'
p3512
g5
((lp3513
S'RHAT1'
p3514
atRp3515
sS'b3626'
p3516
g5
((lp3517
S'GLCTR3'
p3518
atRp3519
sS'b3627'
p3520
g5
((lp3521
S'GLCTR2'
p3522
atRp3523
sg663
g5
((lp3524
g665
atRp3525
sg667
g5
((lp3526
g669
atRp3527
sS'b3622'
p3528
g5
((lp3529
S'ECA4OALpp'
p3530
atRp3531
sS'b3623'
p3532
g5
((lp3533
S'HEPT4'
p3534
atRp3535
sS'b3620'
p3536
g5
((lp3537
S'HEPT2'
p3538
atRp3539
sS'b3621'
p3540
g5
((lp3541
S'HEPT1'
p3542
atRp3543
sg676
g5
((lp3544
g381
atRp3545
sg679
g5
((lp3546
g681
atRp3547
sg683
g5
((lp3548
g685
atRp3549
sg687
g5
((lp3550
g657
ag3506
atRp3551
sg690
g5
((lp3552
g657
ag3506
atRp3553
sg701
g5
((lp3554
g506
atRp3555
sg704
g5
((lp3556
g706
atRp3557
sg708
g5
((lp3558
g710
atRp3559
sg712
g5
((lp3560
g714
atRp3561
sg716
g5
((lp3562
g718
atRp3563
sg720
g5
((lp3564
g191
atRp3565
sg723
g5
((lp3566
g725
atRp3567
sg727
g5
((lp3568
g222
ag226
atRp3569
sg730
g5
((lp3570
g732
atRp3571
sg738
g5
((lp3572
g740
atRp3573
sg742
g5
((lp3574
g744
atRp3575
sg1480
g5
((lp3576
g954
atRp3577
sg749
g5
((lp3578
g751
atRp3579
sg753
g5
((lp3580
g755
ag710
atRp3581
sg757
g5
((lp3582
g759
ag760
atRp3583
sg762
g5
((lp3584
g764
atRp3585
sg766
g5
((lp3586
g768
atRp3587
sg770
g5
((lp3588
g772
atRp3589
sg774
g5
((lp3590
g599
atRp3591
sg777
g5
((lp3592
g779
atRp3593
sg781
g5
((lp3594
g783
atRp3595
sg785
g5
((lp3596
g787
atRp3597
sg789
g5
((lp3598
g791
atRp3599
sg793
g5
((lp3600
g718
atRp3601
sg796
g5
((lp3602
g798
ag799
ag800
ag564
ag801
ag802
ag803
atRp3603
sg805
g5
((lp3604
g807
atRp3605
sg809
g5
((lp3606
g811
ag812
ag813
ag814
ag815
ag816
ag817
ag818
ag819
ag820
ag821
ag822
ag823
ag824
atRp3607
sS'b2167'
p3608
g5
((lp3609
S'FRUptspp'
p3610
atRp3611
sg830
g5
((lp3612
g832
atRp3613
sS'b2168'
p3614
g5
((lp3615
S'FRUK'
p3616
atRp3617
sS'b2169'
p3618
g5
((lp3619
g3610
atRp3620
sg834
g5
((lp3621
g811
ag812
ag813
ag814
ag815
ag816
ag817
ag818
ag819
ag820
ag821
ag822
ag823
ag824
ag836
atRp3622
sg838
g5
((lp3623
g840
atRp3624
sg842
g5
((lp3625
g798
ag799
ag800
ag564
ag801
ag802
ag803
atRp3626
sg849
g5
((lp3627
g377
atRp3628
sS'b0063'
p3629
g5
((lp3630
S'XYLK'
p3631
atRp3632
sg852
g5
((lp3633
g329
atRp3634
sg855
g5
((lp3635
g857
atRp3636
sg859
g5
((lp3637
g861
ag862
atRp3638
sg864
g5
((lp3639
g861
ag862
atRp3640
sg867
g5
((lp3641
g869
atRp3642
sg871
g5
((lp3643
g599
atRp3644
sg874
g5
((lp3645
g876
atRp3646
sg878
g5
((lp3647
g880
atRp3648
sS'b3788'
p3649
g5
((lp3650
g3333
atRp3651
sg882
g5
((lp3652
g884
atRp3653
sg886
g5
((lp3654
g888
atRp3655
sg890
g5
((lp3656
g892
atRp3657
sg894
g5
((lp3658
g896
atRp3659
sg898
g5
((lp3660
g892
atRp3661
sg901
g5
((lp3662
g903
atRp3663
sg905
g5
((lp3664
g907
ag908
atRp3665
sg910
g5
((lp3666
g912
atRp3667
sg914
g5
((lp3668
g916
atRp3669
sg2497
g5
((lp3670
g2499
atRp3671
sg921
g5
((lp3672
g3489
ag621
atRp3673
sS'b3625'
p3674
g5
((lp3675
S'HEPK2'
p3676
atRp3677
sg924
g5
((lp3678
g892
atRp3679
sg927
g5
((lp3680
g266
atRp3681
sg930
g5
((lp3682
g189
atRp3683
sg933
g5
((lp3684
g935
atRp3685
sg937
g5
((lp3686
g935
atRp3687
sg2657
g5
((lp3688
g2659
atRp3689
sg940
g5
((lp3690
g415
atRp3691
sg943
g5
((lp3692
g415
atRp3693
sg946
g5
((lp3694
g415
atRp3695
sg949
g5
((lp3696
g415
atRp3697
sg952
g5
((lp3698
g954
atRp3699
sg956
g5
((lp3700
g506
atRp3701
sg959
g5
((lp3702
g961
ag962
atRp3703
sg964
g5
((lp3704
g415
atRp3705
sg971
g5
((lp3706
g973
atRp3707
sg975
g5
((lp3708
g3489
ag621
atRp3709
sg978
g5
((lp3710
g980
atRp3711
sg982
g5
((lp3712
g984
ag985
atRp3713
sg988
g5
((lp3714
g990
atRp3715
sg992
g5
((lp3716
g990
atRp3717
sg995
g5
((lp3718
g2499
ag990
atRp3719
sg998
g5
((lp3720
g1000
atRp3721
sg1002
g5
((lp3722
g1004
atRp3723
sg1006
g5
((lp3724
g54
atRp3725
sg1009
g5
((lp3726
g1011
atRp3727
sg1013
g5
((lp3728
g15
ag1015
ag718
atRp3729
sg1017
g5
((lp3730
g1019
atRp3731
sg1021
g5
((lp3732
g1023
atRp3733
sg1025
g5
((lp3734
g1027
atRp3735
sg1029
g5
((lp3736
g454
ag455
atRp3737
sg1032
g5
((lp3738
g454
ag455
atRp3739
sg1035
g5
((lp3740
g454
ag455
atRp3741
sg1038
g5
((lp3742
g502
atRp3743
sg1041
g5
((lp3744
g454
ag455
atRp3745
sg1044
g5
((lp3746
g502
atRp3747
sg1442
g5
((lp3748
g502
atRp3749
sg1051
g5
((lp3750
g1053
atRp3751
sg1055
g5
((lp3752
g454
ag455
atRp3753
sg1058
g5
((lp3754
g892
ag1060
ag1061
ag1062
ag1063
ag1064
atRp3755
sg1066
g5
((lp3756
g1068
ag1069
atRp3757
sg1071
g5
((lp3758
g1073
atRp3759
sg1075
g5
((lp3760
g1077
atRp3761
sg1506
g5
((lp3762
g1508
atRp3763
sg1082
g5
((lp3764
g1084
ag1085
atRp3765
sg1087
g5
((lp3766
g1073
atRp3767
sg1090
g5
((lp3768
g1092
atRp3769
sg1094
g5
((lp3770
g1096
atRp3771
sg1098
g5
((lp3772
g1100
ag1101
atRp3773
sg1103
g5
((lp3774
g1062
ag1061
atRp3775
sg1106
g5
((lp3776
g1108
atRp3777
sg1110
g5
((lp3778
g1112
atRp3779
sg1117
g5
((lp3780
g740
atRp3781
sg1120
g5
((lp3782
g192
atRp3783
sg1123
g5
((lp3784
g192
atRp3785
sg1126
g5
((lp3786
g1128
atRp3787
sg1130
g5
((lp3788
g1132
atRp3789
sg1134
g5
((lp3790
g1128
atRp3791
sg1137
g5
((lp3792
g1139
atRp3793
sg1872
g5
((lp3794
g764
atRp3795
sg1156
g5
((lp3796
g1158
atRp3797
sg1160
g5
((lp3798
g751
atRp3799
sg1163
g5
((lp3800
g1165
atRp3801
sg1167
g5
((lp3802
g534
atRp3803
sg1173
g5
((lp3804
g657
ag3506
atRp3805
sS'b3624'
p3806
g5
((lp3807
S'MOAT3C'
p3808
atRp3809
sS'b3619'
p3810
g5
((lp3811
S'AGMHE'
p3812
atRp3813
sg1176
g5
((lp3814
g154
atRp3815
sg1179
g5
((lp3816
g552
atRp3817
sg1182
g5
((lp3818
g1184
atRp3819
sg1186
g5
((lp3820
g1188
atRp3821
sg1190
g5
((lp3822
g266
atRp3823
sg1193
g5
((lp3824
S'ACKr_reverse'
p3825
atRp3826
sg1197
g5
((lp3827
g1199
atRp3828
sg1201
g5
((lp3829
g599
atRp3830
sg1204
g5
((lp3831
g1206
atRp3832
sg1208
g5
((lp3833
g1206
atRp3834
sg1211
g5
((lp3835
g1213
atRp3836
sg1215
g5
((lp3837
g1206
atRp3838
sg2645
g5
((lp3839
g2499
atRp3840
sg1218
g5
((lp3841
g1220
atRp3842
sg1222
g5
((lp3843
g1206
atRp3844
sg1225
g5
((lp3845
g2653
atRp3846
sg1229
g5
((lp3847
g2653
atRp3848
sS'b3052'
p3849
g5
((lp3850
S'GMHEPK'
p3851
aS'GMHEPAT'
p3852
atRp3853
sg1232
g5
((lp3854
g1234
atRp3855
sg1236
g5
((lp3856
g1238
atRp3857
sg1240
g5
((lp3858
g429
ag1242
ag431
atRp3859
sg1244
g5
((lp3860
g1246
ag58
ag59
ag1247
ag60
ag62
ag63
atRp3861
sg1249
g5
((lp3862
g1251
atRp3863
sg1253
g5
((lp3864
g1255
atRp3865
sg1257
g5
((lp3866
g1259
atRp3867
sg1261
g5
((lp3868
g1263
atRp3869
sg1265
g5
((lp3870
g984
ag985
atRp3871
sg1268
g5
((lp3872
g454
ag455
atRp3873
sg1271
g5
((lp3874
g454
ag455
atRp3875
sg1274
g5
((lp3876
g454
ag455
atRp3877
sg1277
g5
((lp3878
g454
ag455
atRp3879
sg1280
g5
((lp3880
g657
ag3506
atRp3881
sg1283
g5
((lp3882
g973
atRp3883
sg1286
g5
((lp3884
g1288
atRp3885
sg1290
g5
((lp3886
g1292
atRp3887
sg1294
g5
((lp3888
g1296
atRp3889
sg1298
g5
((lp3890
g1300
atRp3891
sg1302
g5
((lp3892
g1304
ag1305
atRp3893
sg1307
g5
((lp3894
g1309
atRp3895
sg1311
g5
((lp3896
g1313
atRp3897
sg1315
g5
((lp3898
g1317
atRp3899
sg1319
g5
((lp3900
g116
atRp3901
sg1322
g5
((lp3902
g1324
atRp3903
sg1326
g5
((lp3904
g1328
atRp3905
sg1330
g5
((lp3906
g2732
atRp3907
sg1334
g5
((lp3908
g407
ag408
atRp3909
sg1337
g5
((lp3910
g1339
atRp3911
sg1341
g5
((lp3912
g1343
atRp3913
sg1345
g5
((lp3914
g1347
atRp3915
sg1349
g5
((lp3916
g1351
atRp3917
sg1353
g5
((lp3918
g552
atRp3919
sg1356
g5
((lp3920
g1358
ag1359
atRp3921
sg1361
g5
((lp3922
g1363
atRp3923
sg1365
g5
((lp3924
g1092
atRp3925
sg1368
g5
((lp3926
g407
ag408
atRp3927
sg1371
g5
((lp3928
g1373
atRp3929
sg1375
g5
((lp3930
g28
atRp3931
sg1378
g5
((lp3932
g1380
atRp3933
sg1382
g5
((lp3934
g1384
atRp3935
sg1386
g5
((lp3936
g1388
atRp3937
sg1576
g5
((lp3938
g1313
atRp3939
sg1394
g5
((lp3940
g266
atRp3941
sg1397
g5
((lp3942
g1358
ag1359
atRp3943
sg1400
g5
((lp3944
g1402
atRp3945
sg1404
g5
((lp3946
g1011
atRp3947
sg1407
g5
((lp3948
g1409
atRp3949
sg1411
g5
((lp3950
g454
ag455
atRp3951
sg1414
g5
((lp3952
g1416
atRp3953
sg1418
g5
((lp3954
g556
atRp3955
sg1421
g5
((lp3956
g669
atRp3957
sg1424
g5
((lp3958
g545
atRp3959
sS'b0200'
p3960
g5
((lp3961
S'GMHEPPA'
p3962
atRp3963
sg1427
g5
((lp3964
g454
ag455
atRp3965
sg1430
g5
((lp3966
g1432
atRp3967
sg1434
g5
((lp3968
g1436
atRp3969
sS'b1236'
p3970
g5
((lp3971
S'GALUi'
p3972
atRp3973
sg1114
g5
((lp3974
g454
ag455
atRp3975
sg1445
g5
((lp3976
g1447
atRp3977
sg1449
g5
((lp3978
g196
atRp3979
sg1452
g5
((lp3980
g367
ag368
ag3336
atRp3981
sg1463
g5
((lp3982
g1465
atRp3983
sg2803
g5
((lp3984
g2355
atRp3985
sg1467
g5
((lp3986
g1469
atRp3987
sg2043
g5
((lp3988
g2045
atRp3989
sg1474
g5
((lp3990
g1184
atRp3991
sg1477
g5
((lp3992
g154
atRp3993
sg1483
g5
((lp3994
g892
atRp3995
sg1486
g5
((lp3996
g1488
ag1489
atRp3997
sg1491
g5
((lp3998
g1493
atRp3999
sg1153
g5
((lp4000
g341
atRp4001
sS'b1855'
p4002
g5
((lp4003
S'EDTXS2'
p4004
atRp4005
sg1503
g5
((lp4006
g313
atRp4007
sg1079
g5
((lp4008
g1073
atRp4009
sg1510
g5
((lp4010
g1512
atRp4011
sg1514
g5
((lp4012
g1073
atRp4013
sg1517
g5
((lp4014
g1519
atRp4015
sg1521
g5
((lp4016
g221
atRp4017
sg1524
g5
((lp4018
g1296
atRp4019
sg1527
g5
((lp4020
g1529
atRp4021
sS'b4481'
p4022
g5
((lp4023
S'AADDGT'
p4024
atRp4025
sg1531
g5
((lp4026
g1533
atRp4027
sg1535
g5
((lp4028
g1537
atRp4029
sg1539
g5
((lp4030
g1541
ag1542
atRp4031
sg1544
g5
((lp4032
g1546
atRp4033
sg1548
g5
((lp4034
g649
atRp4035
sg1551
g5
((lp4036
g1553
atRp4037
sg1572
g5
((lp4038
g1574
atRp4039
sS'b3653'
p4040
g5
((lp4041
S'GLUt4pp'
p4042
atRp4043
sg1390
g5
((lp4044
g1392
atRp4045
sg826
g5
((lp4046
g828
atRp4047
sg2858
g5
((lp4048
g2355
atRp4049
sg1583
g5
((lp4050
g1585
atRp4051
sg1587
g5
((lp4052
g1589
ag1139
ag1590
atRp4053
sg1592
g5
((lp4054
g907
ag908
atRp4055
sg1595
g5
((lp4056
g1597
ag1598
atRp4057
sg1600
g5
((lp4058
g1597
ag1602
ag1060
ag1061
ag1598
ag1062
atRp4059
sg1608
g5
((lp4060
g3825
atRp4061
sg1611
g5
((lp4062
g3255
atRp4063
sg1614
g5
((lp4064
g1288
atRp4065
sg1617
g5
((lp4066
g225
ag227
ag3262
ag228
atRp4067
sg967
g5
((lp4068
g969
atRp4069
sg1627
g5
((lp4070
g1343
atRp4071
sg1630
g5
((lp4072
g429
ag1242
ag1632
atRp4073
sg1634
g5
((lp4074
g3173
ag3174
ag3175
ag3176
ag3177
ag3178
ag3179
ag3180
ag3181
ag3182
ag3183
ag3184
ag3185
ag3186
ag3187
ag3188
ag552
ag3189
ag3190
ag3191
ag3192
ag3193
ag3194
ag3195
ag3196
ag3197
ag3198
atRp4075
sg1637
g5
((lp4076
g912
atRp4077
sg1640
g5
((lp4078
g1642
atRp4079
sg1644
g5
((lp4080
g1646
atRp4081
sg1648
g5
((lp4082
g116
atRp4083
sg1651
g5
((lp4084
g3173
ag3174
ag3175
ag3176
ag3177
ag3178
ag3179
ag3180
ag3181
ag3182
ag3183
ag3184
ag3185
ag3186
ag3187
ag3188
ag552
ag3189
ag3190
ag3191
ag3192
ag3193
ag3194
ag3195
ag3196
ag3197
ag3198
atRp4085
sg1654
g5
((lp4086
g158
ag1656
atRp4087
sg1658
g5
((lp4088
g1660
atRp4089
sg1662
g5
((lp4090
g196
atRp4091
sg1665
g5
((lp4092
g1347
atRp4093
sg1672
g5
((lp4094
g1347
atRp4095
sS'b1817'
p4096
g5
((lp4097
S'FRUpts2pp'
p4098
atRp4099
sg1675
g5
((lp4100
g196
atRp4101
sS'b3790'
p4102
g5
((lp4103
S'TDPADGAT'
p4104
atRp4105
sg1678
g5
((lp4106
g725
atRp4107
sg1681
g5
((lp4108
g3138
atRp4109
sS'b1819'
p4110
g5
((lp4111
g4098
atRp4112
sS'b1818'
p4113
g5
((lp4114
g4098
atRp4115
sg1684
g5
((lp4116
g1686
ag1687
atRp4117
sg1689
g5
((lp4118
g1691
atRp4119
sg1693
g5
((lp4120
g1553
atRp4121
sg1696
g5
((lp4122
g1553
atRp4123
sg1699
g5
((lp4124
g1553
atRp4125
sg1702
g5
((lp4126
g1553
atRp4127
sg1705
g5
((lp4128
g1063
ag1707
atRp4129
sg1709
g5
((lp4130
g1707
atRp4131
sg1712
g5
((lp4132
g360
ag482
atRp4133
sS'b3564'
p4134
g5
((lp4135
g3631
atRp4136
sg1723
g5
((lp4137
g599
atRp4138
sg1726
g5
((lp4139
g1728
atRp4140
sg1730
g5
((lp4141
g1732
ag1733
atRp4142
sg1735
g5
((lp4143
g1542
atRp4144
sg1738
g5
((lp4145
g1740
atRp4146
sg1746
g5
((lp4147
g1748
atRp4148
sg1750
g5
((lp4149
g1752
ag1753
ag1754
ag530
ag1755
atRp4150
sg206
g5
((lp4151
g208
atRp4152
sg1760
g5
((lp4153
g1762
atRp4154
sg1764
g5
((lp4155
g1766
atRp4156
sg1768
g5
((lp4157
g1770
atRp4158
sg2056
g5
((lp4159
g2058
atRp4160
sg1772
g5
((lp4161
g1774
atRp4162
sg1776
g5
((lp4163
g341
atRp4164
sg1779
g5
((lp4165
g1781
atRp4166
sg601
g5
((lp4167
g603
atRp4168
sg1807
g5
((lp4169
g2931
atRp4170
sg1810
g5
((lp4171
g15
ag1015
ag718
atRp4172
sg1813
g5
((lp4173
g1815
atRp4174
sg1817
g5
((lp4175
g1819
atRp4176
sg1821
g5
((lp4177
g1823
atRp4178
sg671
g5
((lp4179
g673
atRp4180
sg1829
g5
((lp4181
g1831
atRp4182
sg1833
g5
((lp4183
g27
ag28
atRp4184
sg1836
g5
((lp4185
g3610
ag4098
ag1838
atRp4186
sg1840
g5
((lp4187
g1842
atRp4188
sg1844
g5
((lp4189
g3610
ag4098
ag1838
atRp4190
sS'b3785'
p4191
g5
((lp4192
S'ECAP2pp'
p4193
aS'ECAP3pp'
p4194
aS'ECAP1pp'
p4195
atRp4196
sS'b3784'
p4197
g5
((lp4198
S'ACGAMT'
p4199
atRp4200
sS'b3787'
p4201
g5
((lp4202
S'UACMAMO'
p4203
atRp4204
sg1847
g5
((lp4205
g1546
atRp4206
sg1850
g5
((lp4207
g189
ag191
ag192
atRp4208
sg1853
g5
((lp4209
g607
atRp4210
sS'b3789'
p4211
g5
((lp4212
g3478
atRp4213
sg1856
g5
((lp4214
g556
atRp4215
sg1859
g5
((lp4216
g1861
atRp4217
sg1863
g5
((lp4218
g415
atRp4219
sg1866
g5
((lp4220
g32
atRp4221
sg1869
g5
((lp4222
g415
atRp4223
sg1875
g5
((lp4224
g1877
atRp4225
sg1879
g5
((lp4226
g1881
ag1882
aS'COLIPAabcpp'
p4227
ag1883
atRp4228
sg1885
g5
((lp4229
g415
atRp4230
sg1888
g5
((lp4231
g1890
ag459
atRp4232
sg1892
g5
((lp4233
g525
atRp4234
sg1719
g5
((lp4235
g1721
atRp4236
sg1895
g5
((lp4237
g1897
atRp4238
sg1899
g5
((lp4239
g15
atRp4240
sg1902
g5
((lp4241
g1904
atRp4242
sg1906
g5
((lp4243
g1199
atRp4244
sg1913
g5
((lp4245
g1915
ag463
ag1916
atRp4246
sg1918
g5
((lp4247
g3336
ag367
ag369
ag368
ag49
ag270
atRp4248
sg1921
g5
((lp4249
g1923
ag1924
atRp4250
sg1926
g5
((lp4251
g1928
atRp4252
sg1930
g5
((lp4253
g861
ag862
atRp4254
sg1933
g5
((lp4255
g1928
atRp4256
sg1936
g5
((lp4257
g1938
ag1939
atRp4258
sg1941
g5
((lp4259
g1943
atRp4260
sg1945
g5
((lp4261
g1947
atRp4262
sg1949
g5
((lp4263
g1951
atRp4264
sg1953
g5
((lp4265
g1955
atRp4266
sg1957
g5
((lp4267
g556
atRp4268
sg1960
g5
((lp4269
g1838
atRp4270
sg1963
g5
((lp4271
g980
atRp4272
sg1966
g5
((lp4273
g1968
atRp4274
sg1970
g5
((lp4275
g980
atRp4276
sg1973
g5
((lp4277
g1838
atRp4278
sg1976
g5
((lp4279
g1838
atRp4280
sg1979
g5
((lp4281
g556
atRp4282
sg1982
g5
((lp4283
g1238
atRp4284
sg1985
g5
((lp4285
g751
atRp4286
sg1988
g5
((lp4287
g599
atRp4288
sg1995
g5
((lp4289
g1823
atRp4290
sg1998
g5
((lp4291
g2000
atRp4292
sg2002
g5
((lp4293
g2004
ag2005
atRp4294
sg2007
g5
((lp4295
g2009
atRp4296
sg2011
g5
((lp4297
g1740
atRp4298
sg2014
g5
((lp4299
g506
atRp4300
sg2017
g5
((lp4301
g3825
ag2019
atRp4302
sg2021
g5
((lp4303
g506
atRp4304
sg2024
g5
((lp4305
g2026
atRp4306
sg2028
g5
((lp4307
g1842
atRp4308
sg2031
g5
((lp4309
g2033
atRp4310
sg2035
g5
((lp4311
g2037
atRp4312
sg2039
g5
((lp4313
g2041
atRp4314
sg1742
g5
((lp4315
g1744
atRp4316
sg2047
g5
((lp4317
g2049
atRp4318
sS'b3631'
p4319
g5
((lp4320
S'GLCTR1'
p4321
atRp4322
sS'b3630'
p4323
g5
((lp4324
S'HEPK1'
p4325
atRp4326
sg2051
g5
((lp4327
g2053
ag2054
atRp4328
sS'b3632'
p4329
g5
((lp4330
S'HEPT3'
p4331
atRp4332
sg2060
g5
((lp4333
g1184
atRp4334
sg2063
g5
((lp4335
g556
atRp4336
sg2066
g5
((lp4337
g1255
atRp4338
sg2069
g5
((lp4339
g367
ag368
ag3336
atRp4340
sg2072
g5
((lp4341
g2074
atRp4342
sg2076
g5
((lp4343
g2078
atRp4344
sg2080
g5
((lp4345
g2082
ag217
atRp4346
sg2084
g5
((lp4347
g2086
atRp4348
sg2088
g5
((lp4349
g400
atRp4350
sg2091
g5
((lp4351
g2093
atRp4352
sS'b3793'
p4353
g5
((lp4354
g4193
ag4194
ag4195
atRp4355
ssS'PYR_BATCH_mu=0.40_S'
p4356
(dp4357
g13
g5
((lp4358
g15
atRp4359
sg17
g5
((lp4360
g19
atRp4361
sS'b3824'
p4362
g5
((lp4363
S'HOMt2pp'
p4364
atRp4365
sg25
g5
((lp4366
g27
ag28
atRp4367
sg30
g5
((lp4368
g2107
atRp4369
sg34
g5
((lp4370
g36
ag37
atRp4371
sg39
g5
((lp4372
g41
atRp4373
sg43
g5
((lp4374
g45
atRp4375
sg47
g5
((lp4376
g49
atRp4377
sg51
g5
((lp4378
g53
ag54
atRp4379
sg56
g5
((lp4380
g58
ag59
ag60
ag2120
ag62
ag63
atRp4381
sg65
g5
((lp4382
g67
atRp4383
sg21
g5
((lp4384
g23
atRp4385
sg73
g5
((lp4386
g75
atRp4387
sg77
g5
((lp4388
S'TRPtex_reverse'
p4389
ag79
ag80
ag95
ag82
ag83
ag84
aS'HOMtex_reverse'
p4390
ag86
ag87
ag88
ag89
ag91
ag2129
aS'FE3tex'
p4391
ag104
aS'MALtex_reverse'
p4392
ag94
ag81
ag96
ag97
ag99
ag98
aS'PYRtex'
p4393
ag101
ag102
ag103
aS'ACtex_reverse'
p4394
atRp4395
sg110
g5
((lp4396
g112
atRp4397
sg114
g5
((lp4398
g116
atRp4399
sg118
g5
((lp4400
g120
atRp4401
sg122
g5
((lp4402
g124
atRp4403
sg126
g5
((lp4404
g128
ag129
atRp4405
sg131
g5
((lp4406
g112
atRp4407
sg134
g5
((lp4408
g112
atRp4409
sg137
g5
((lp4410
g112
atRp4411
sg145
g5
((lp4412
g112
atRp4413
sg148
g5
((lp4414
S'T2DECAI_reverse'
p4415
atRp4416
sg152
g5
((lp4417
g154
atRp4418
sg156
g5
((lp4419
g158
ag159
atRp4420
sg161
g5
((lp4421
g163
ag164
atRp4422
sg166
g5
((lp4423
g163
ag164
atRp4424
sg169
g5
((lp4425
g171
atRp4426
sg173
g5
((lp4427
g175
ag176
atRp4428
sg178
g5
((lp4429
g180
atRp4430
sg701
g5
((lp4431
g506
atRp4432
sg186
g5
((lp4433
g189
ag191
ag2175
ag192
aS'RNDR1'
p4434
atRp4435
sg1817
g5
((lp4436
S'TPI_reverse'
p4437
atRp4438
sg194
g5
((lp4439
g196
atRp4440
sg198
g5
((lp4441
g200
atRp4442
sg202
g5
((lp4443
g3255
atRp4444
sg210
g5
((lp4445
g212
atRp4446
sg214
g5
((lp4447
g217
atRp4448
sg219
g5
((lp4449
g221
ag222
ag223
ag225
ag226
ag227
ag228
atRp4450
sg230
g5
((lp4451
g232
ag233
ag234
atRp4452
sg237
g5
((lp4453
g223
atRp4454
sg240
g5
((lp4455
g242
atRp4456
sg244
g5
((lp4457
g246
atRp4458
sg248
g5
((lp4459
g250
ag251
atRp4460
sg253
g5
((lp4461
g256
ag257
ag258
atRp4462
sg260
g5
((lp4463
S'ENO_reverse'
p4464
atRp4465
sg268
g5
((lp4466
g270
atRp4467
sg272
g5
((lp4468
g274
atRp4469
sg276
g5
((lp4470
g278
atRp4471
sg280
g5
((lp4472
g282
atRp4473
sg284
g5
((lp4474
g286
atRp4475
sg288
g5
((lp4476
g290
atRp4477
sg292
g5
((lp4478
g294
atRp4479
sg296
g5
((lp4480
g298
atRp4481
sg300
g5
((lp4482
g4389
ag79
ag80
ag95
ag82
ag83
ag84
ag4390
ag86
ag87
ag88
ag89
ag91
ag2129
ag4391
ag104
ag4392
ag94
ag81
ag96
ag97
ag99
ag98
ag4393
ag101
ag102
ag103
ag4394
atRp4483
sg303
g5
((lp4484
g305
atRp4485
sg307
g5
((lp4486
g309
atRp4487
sg315
g5
((lp4488
g317
atRp4489
sg319
g5
((lp4490
g321
atRp4491
sg323
g5
((lp4492
g325
atRp4493
sg327
g5
((lp4494
g329
atRp4495
sg335
g5
((lp4496
g337
atRp4497
sS'b3709'
p4498
g5
((lp4499
S'TRPt2rpp_reverse'
p4500
atRp4501
sg339
g5
((lp4502
g341
atRp4503
sg343
g5
((lp4504
g341
atRp4505
sg346
g5
((lp4506
g348
atRp4507
sg350
g5
((lp4508
g352
atRp4509
sg354
g5
((lp4510
g356
atRp4511
sg358
g5
((lp4512
g360
atRp4513
sg362
g5
((lp4514
g2107
atRp4515
sS'b1473'
p4516
g5
((lp4517
g4500
atRp4518
sg365
g5
((lp4519
g49
ag367
ag270
ag3336
ag369
atRp4520
sg371
g5
((lp4521
g75
aS'GAPD_reverse'
p4522
atRp4523
sg375
g5
((lp4524
g377
atRp4525
sg379
g5
((lp4526
g381
atRp4527
sg383
g5
((lp4528
g385
atRp4529
sg387
g5
((lp4530
g389
atRp4531
sg1776
g5
((lp4532
g341
atRp4533
sg394
g5
((lp4534
g396
atRp4535
sg398
g5
((lp4536
g400
atRp4537
sg402
g5
((lp4538
g112
atRp4539
sg405
g5
((lp4540
g407
ag408
atRp4541
sg410
g5
((lp4542
g407
ag408
atRp4543
sg391
g5
((lp4544
g112
atRp4545
sg417
g5
((lp4546
g112
atRp4547
sg420
g5
((lp4548
g422
atRp4549
sg427
g5
((lp4550
g429
ag430
ag431
ag432
atRp4551
sg434
g5
((lp4552
g436
ag437
atRp4553
sg439
g5
((lp4554
g441
ag442
atRp4555
sg444
g5
((lp4556
g446
atRp4557
sg448
g5
((lp4558
g450
atRp4559
sg457
g5
((lp4560
g459
atRp4561
sg461
g5
((lp4562
g463
atRp4563
sg465
g5
((lp4564
g360
atRp4565
sg468
g5
((lp4566
g266
atRp4567
sg471
g5
((lp4568
g473
ag474
atRp4569
sg476
g5
((lp4570
g478
atRp4571
sg480
g5
((lp4572
g482
atRp4573
sg484
g5
((lp4574
g486
atRp4575
sg488
g5
((lp4576
g490
atRp4577
sg492
g5
((lp4578
g494
atRp4579
sg496
g5
((lp4580
g498
atRp4581
sg504
g5
((lp4582
g506
atRp4583
sg508
g5
((lp4584
g506
atRp4585
sg514
g5
((lp4586
g516
ag517
atRp4587
sg519
g5
((lp4588
g521
atRp4589
sg523
g5
((lp4590
g525
atRp4591
sg527
g5
((lp4592
g529
aS'MG2tpp'
p4593
ag530
atRp4594
sg536
g5
((lp4595
g112
atRp4596
sg539
g5
((lp4597
g541
atRp4598
sg543
g5
((lp4599
g545
atRp4600
sg547
g5
((lp4601
g266
atRp4602
sg264
g5
((lp4603
g266
atRp4604
sg558
g5
((lp4605
g560
atRp4606
sg562
g5
((lp4607
g564
atRp4608
sg566
g5
((lp4609
S'GHMT2r'
p4610
ag337
atRp4611
sg573
g5
((lp4612
g575
ag576
ag577
ag578
ag579
ag580
ag541
ag581
ag582
atRp4613
sg2353
g5
((lp4614
g2355
atRp4615
sg584
g5
((lp4616
g367
ag3336
ag369
atRp4617
sg587
g5
((lp4618
g589
ag590
ag591
ag592
ag593
ag594
ag595
atRp4619
sg635
g5
((lp4620
g637
atRp4621
sg605
g5
((lp4622
g607
atRp4623
sg619
g5
((lp4624
g621
atRp4625
sg623
g5
((lp4626
g625
atRp4627
sg630
g5
((lp4628
S'EAR100x'
p4629
ag632
ag633
atRp4630
sg639
g5
((lp4631
g2378
atRp4632
sg651
g5
((lp4633
g653
atRp4634
sg655
g5
((lp4635
g657
atRp4636
sg663
g5
((lp4637
g665
atRp4638
sg667
g5
((lp4639
g669
atRp4640
sS'b3588'
p4641
g5
((lp4642
S'ALDD2y'
p4643
atRp4644
sg2390
g5
((lp4645
g2392
atRp4646
sg676
g5
((lp4647
g2395
ag381
atRp4648
sg679
g5
((lp4649
g681
aS'PUNP6'
p4650
aS'PUNP2'
p4651
atRp4652
sg683
g5
((lp4653
g685
atRp4654
sg687
g5
((lp4655
g657
atRp4656
sg690
g5
((lp4657
g657
atRp4658
sg182
g5
((lp4659
g184
atRp4660
sg704
g5
((lp4661
g706
atRp4662
sg1438
g5
((lp4663
g1440
atRp4664
sS'b0733'
p4665
g5
((lp4666
S'CYTBDpp'
p4667
atRp4668
sS'b0734'
p4669
g5
((lp4670
g4667
atRp4671
sg716
g5
((lp4672
g718
atRp4673
sg720
g5
((lp4674
g191
atRp4675
sg723
g5
((lp4676
g725
atRp4677
sg727
g5
((lp4678
g222
ag226
atRp4679
sg730
g5
((lp4680
g732
atRp4681
sg738
g5
((lp4682
g740
atRp4683
sg742
g5
((lp4684
g744
atRp4685
sg1480
g5
((lp4686
g954
atRp4687
sg757
g5
((lp4688
g759
ag760
atRp4689
sg762
g5
((lp4690
g764
atRp4691
sg770
g5
((lp4692
g772
atRp4693
sg774
g5
((lp4694
g599
atRp4695
sg1760
g5
((lp4696
g1762
atRp4697
sg781
g5
((lp4698
g783
atRp4699
sg785
g5
((lp4700
g787
atRp4701
sg789
g5
((lp4702
g791
atRp4703
sg793
g5
((lp4704
g718
atRp4705
sg796
g5
((lp4706
g798
ag799
ag800
ag564
ag801
ag802
ag803
atRp4707
sg805
g5
((lp4708
g807
atRp4709
sg809
g5
((lp4710
g811
ag812
ag813
ag814
ag815
ag816
ag817
ag818
ag819
ag820
ag821
ag822
ag823
ag824
atRp4711
sg1386
g5
((lp4712
g1388
atRp4713
sg834
g5
((lp4714
g811
ag812
ag813
ag814
ag815
ag816
ag817
ag818
ag819
ag820
ag821
ag822
ag823
ag824
ag836
atRp4715
sg838
g5
((lp4716
g840
aS'FE3Ri'
p4717
atRp4718
sg842
g5
((lp4719
g798
ag799
ag800
ag564
ag801
ag802
ag803
atRp4720
sg849
g5
((lp4721
g377
atRp4722
sg852
g5
((lp4723
g329
atRp4724
sg855
g5
((lp4725
g857
atRp4726
sg859
g5
((lp4727
g861
ag862
atRp4728
sg864
g5
((lp4729
g861
ag862
atRp4730
sg867
g5
((lp4731
g869
atRp4732
sg871
g5
((lp4733
g599
atRp4734
sg874
g5
((lp4735
g876
atRp4736
sg878
g5
((lp4737
g880
atRp4738
sg882
g5
((lp4739
g884
atRp4740
sg886
g5
((lp4741
g888
atRp4742
sg890
g5
((lp4743
g892
atRp4744
sg894
g5
((lp4745
g896
atRp4746
sg898
g5
((lp4747
g892
atRp4748
sg901
g5
((lp4749
g903
atRp4750
sg905
g5
((lp4751
g907
ag908
atRp4752
sg910
g5
((lp4753
g912
atRp4754
sg914
g5
((lp4755
g916
atRp4756
sg2497
g5
((lp4757
g2499
atRp4758
sg921
g5
((lp4759
g621
atRp4760
sg924
g5
((lp4761
g892
atRp4762
sg930
g5
((lp4763
g189
atRp4764
sg933
g5
((lp4765
g935
atRp4766
sg937
g5
((lp4767
g935
atRp4768
sg708
g5
((lp4769
g710
atRp4770
sg712
g5
((lp4771
g714
atRp4772
sg609
g5
((lp4773
g506
atRp4774
sg627
g5
((lp4775
g506
atRp4776
sg952
g5
((lp4777
g954
atRp4778
sg956
g5
((lp4779
g506
atRp4780
sg959
g5
((lp4781
g961
ag962
atRp4782
sg753
g5
((lp4783
g755
ag710
atRp4784
sg971
g5
((lp4785
g973
atRp4786
sg975
g5
((lp4787
g621
atRp4788
sg978
g5
((lp4789
g980
atRp4790
sg982
g5
((lp4791
g984
ag985
atRp4792
sg988
g5
((lp4793
g990
atRp4794
sg992
g5
((lp4795
g990
atRp4796
sg995
g5
((lp4797
g2499
ag990
atRp4798
sS'b0112'
p4799
g5
((lp4800
g4500
atRp4801
sg1002
g5
((lp4802
g1004
atRp4803
sg1006
g5
((lp4804
g54
atRp4805
sg1009
g5
((lp4806
g1011
atRp4807
sg1013
g5
((lp4808
g15
ag718
atRp4809
sg1021
g5
((lp4810
g1023
atRp4811
sg1025
g5
((lp4812
g1027
atRp4813
sg1434
g5
((lp4814
g1436
atRp4815
sg1051
g5
((lp4816
g1053
atRp4817
sg1058
g5
((lp4818
g892
ag1060
ag1061
ag1062
ag1063
ag1064
atRp4819
sg1066
g5
((lp4820
g1068
ag1069
atRp4821
sg1071
g5
((lp4822
g1073
aS'FRD3'
p4823
atRp4824
sg1075
g5
((lp4825
g1077
atRp4826
sg1079
g5
((lp4827
g1073
ag4823
atRp4828
sg1082
g5
((lp4829
g1084
ag1085
atRp4830
sg1087
g5
((lp4831
g1073
ag4823
atRp4832
sg1090
g5
((lp4833
g1092
atRp4834
sg1094
g5
((lp4835
g1096
atRp4836
sg1098
g5
((lp4837
g1100
ag1101
atRp4838
sg1103
g5
((lp4839
g1062
ag1061
atRp4840
sg1106
g5
((lp4841
g1108
atRp4842
sg1110
g5
((lp4843
g1112
atRp4844
sg1117
g5
((lp4845
g740
atRp4846
sg1120
g5
((lp4847
g2175
ag192
ag4434
atRp4848
sg1123
g5
((lp4849
g2175
ag192
ag4434
atRp4850
sg1126
g5
((lp4851
g1128
atRp4852
sg1130
g5
((lp4853
g1132
atRp4854
sg1134
g5
((lp4855
g1128
atRp4856
sg1137
g5
((lp4857
g1139
atRp4858
sg998
g5
((lp4859
g1000
atRp4860
sg1872
g5
((lp4861
g764
atRp4862
sg1156
g5
((lp4863
g1158
atRp4864
sg1163
g5
((lp4865
g1165
atRp4866
sg1167
g5
((lp4867
g534
atRp4868
sg1173
g5
((lp4869
g657
atRp4870
sg1176
g5
((lp4871
g154
atRp4872
sg597
g5
((lp4873
g599
atRp4874
sg1182
g5
((lp4875
S'PGM'
p4876
atRp4877
sg1186
g5
((lp4878
g1188
atRp4879
sg1190
g5
((lp4880
g266
atRp4881
sg1193
g5
((lp4882
g3825
atRp4883
sg1197
g5
((lp4884
g1199
atRp4885
sg1201
g5
((lp4886
g599
atRp4887
sg1204
g5
((lp4888
g1206
atRp4889
sg1208
g5
((lp4890
g1206
atRp4891
sg1211
g5
((lp4892
g1213
atRp4893
sg1215
g5
((lp4894
g1206
atRp4895
sg2645
g5
((lp4896
g2499
atRp4897
sg1218
g5
((lp4898
g1220
atRp4899
sg1222
g5
((lp4900
g1206
atRp4901
sg1225
g5
((lp4902
g2653
atRp4903
sg1229
g5
((lp4904
g2653
atRp4905
sg1232
g5
((lp4906
g1234
atRp4907
sg1236
g5
((lp4908
g1238
atRp4909
sg1240
g5
((lp4910
g429
ag1242
ag431
atRp4911
sg1244
g5
((lp4912
g1246
aS'DADK_reverse'
p4913
ag58
ag59
ag1247
ag60
ag2120
ag62
ag63
atRp4914
sg1249
g5
((lp4915
g1251
atRp4916
sg1322
g5
((lp4917
g1324
atRp4918
sg1257
g5
((lp4919
g1259
atRp4920
sg2679
g5
((lp4921
g2681
atRp4922
sg1261
g5
((lp4923
g1263
atRp4924
sg1265
g5
((lp4925
g984
ag985
atRp4926
sg2695
g5
((lp4927
g2697
ag4667
atRp4928
sg2699
g5
((lp4929
g2697
ag4667
atRp4930
sg1280
g5
((lp4931
g657
atRp4932
sg1283
g5
((lp4933
g973
atRp4934
sg1286
g5
((lp4935
g1288
atRp4936
sg1290
g5
((lp4937
g1292
atRp4938
sg1294
g5
((lp4939
g1296
atRp4940
sg1298
g5
((lp4941
g1300
atRp4942
sg1302
g5
((lp4943
g1304
ag1305
atRp4944
sg1307
g5
((lp4945
g1309
atRp4946
sg1311
g5
((lp4947
g1313
atRp4948
sg1315
g5
((lp4949
g1317
atRp4950
sg1319
g5
((lp4951
g116
atRp4952
sg1253
g5
((lp4953
g1255
atRp4954
sg2726
g5
((lp4955
g4650
atRp4956
sg1326
g5
((lp4957
g1328
atRp4958
sg1330
g5
((lp4959
g2732
atRp4960
sg1334
g5
((lp4961
g407
ag408
atRp4962
sg1337
g5
((lp4963
g1339
atRp4964
sg1341
g5
((lp4965
g1343
atRp4966
sg1345
g5
((lp4967
S'GLYCTO4'
p4968
atRp4969
sg1349
g5
((lp4970
g1351
atRp4971
sg1356
g5
((lp4972
g1358
ag1359
atRp4973
sg1361
g5
((lp4974
g1363
atRp4975
sg1365
g5
((lp4976
g1092
atRp4977
sg1368
g5
((lp4978
g407
ag408
atRp4979
sg1371
g5
((lp4980
g1373
atRp4981
sg1375
g5
((lp4982
g28
atRp4983
sg1378
g5
((lp4984
g1380
atRp4985
sg1382
g5
((lp4986
g1384
atRp4987
sg1576
g5
((lp4988
g1313
atRp4989
sg1394
g5
((lp4990
g266
atRp4991
sg1397
g5
((lp4992
g1358
ag1359
atRp4993
sg1400
g5
((lp4994
g1402
atRp4995
sg1404
g5
((lp4996
g1011
atRp4997
sg1407
g5
((lp4998
g1409
atRp4999
sg1414
g5
((lp5000
g1416
atRp5001
sg1421
g5
((lp5002
g669
atRp5003
sg1424
g5
((lp5004
g545
atRp5005
sg1430
g5
((lp5006
g1432
atRp5007
sg1445
g5
((lp5008
g1447
atRp5009
sg1449
g5
((lp5010
g196
atRp5011
sg1452
g5
((lp5012
g367
ag3336
atRp5013
sS'b3089'
p5014
g5
((lp5015
S'THRt4pp'
p5016
atRp5017
sg1463
g5
((lp5018
g1465
atRp5019
sg2803
g5
((lp5020
g2355
atRp5021
sg1467
g5
((lp5022
g1469
atRp5023
sg2043
g5
((lp5024
g2045
atRp5025
sg1474
g5
((lp5026
g4876
atRp5027
sg1477
g5
((lp5028
g154
atRp5029
sg1483
g5
((lp5030
g892
atRp5031
sg1486
g5
((lp5032
g1488
ag1489
atRp5033
sg1491
g5
((lp5034
g1493
atRp5035
sg1153
g5
((lp5036
g341
atRp5037
sg1506
g5
((lp5038
g1508
atRp5039
sg1510
g5
((lp5040
g1512
atRp5041
sg1514
g5
((lp5042
g1073
ag4823
atRp5043
sg1517
g5
((lp5044
g1519
atRp5045
sg1521
g5
((lp5046
g221
atRp5047
sg1524
g5
((lp5048
g1296
atRp5049
sg1527
g5
((lp5050
g1529
atRp5051
sg1531
g5
((lp5052
g1533
atRp5053
sg1535
g5
((lp5054
g1537
atRp5055
sg1539
g5
((lp5056
g1541
ag1542
atRp5057
sg647
g5
((lp5058
g649
atRp5059
sg1548
g5
((lp5060
g649
atRp5061
sg1572
g5
((lp5062
g1574
atRp5063
sg1390
g5
((lp5064
S'ASPO6'
p5065
atRp5066
sg826
g5
((lp5067
g828
atRp5068
sg2858
g5
((lp5069
g2355
atRp5070
sg1583
g5
((lp5071
g1585
atRp5072
sg1587
g5
((lp5073
g1589
ag1139
ag1590
atRp5074
sg1592
g5
((lp5075
g907
ag908
atRp5076
sg1595
g5
((lp5077
g1597
ag1598
atRp5078
sg1600
g5
((lp5079
g1597
ag1602
ag1060
ag1061
ag1598
ag1062
atRp5080
sg1608
g5
((lp5081
g3825
atRp5082
sg1611
g5
((lp5083
g3255
atRp5084
sg1614
g5
((lp5085
g1288
atRp5086
sg2879
g5
((lp5087
S'NTD6'
p5088
atRp5089
sg1617
g5
((lp5090
g225
ag227
ag228
atRp5091
sg967
g5
((lp5092
g969
atRp5093
sg1627
g5
((lp5094
g1343
atRp5095
sg1630
g5
((lp5096
g429
ag1242
ag1632
atRp5097
sg1634
g5
((lp5098
g4389
ag79
ag80
ag95
ag82
ag83
ag84
ag4390
ag86
ag87
ag88
ag89
ag91
ag2129
ag4391
ag104
ag4392
ag94
ag81
ag96
ag97
ag99
ag98
ag4393
ag101
ag102
ag103
ag4394
atRp5099
sg1637
g5
((lp5100
g912
atRp5101
sg1640
g5
((lp5102
g1642
atRp5103
sg1644
g5
((lp5104
g1646
atRp5105
sg2905
g5
((lp5106
g5088
atRp5107
sg1648
g5
((lp5108
g116
atRp5109
sg1651
g5
((lp5110
g4389
ag79
ag80
ag95
ag82
ag83
ag84
ag4390
ag86
ag87
ag88
ag89
ag91
ag2129
ag4391
ag104
ag4392
ag94
ag81
ag96
ag97
ag99
ag98
ag4393
ag101
ag102
ag103
ag4394
atRp5111
sg1654
g5
((lp5112
g158
ag1656
atRp5113
sg1658
g5
((lp5114
g1660
atRp5115
sg1662
g5
((lp5116
g196
atRp5117
sg1665
g5
((lp5118
g4968
atRp5119
sg1672
g5
((lp5120
g4968
atRp5121
sg1675
g5
((lp5122
g196
atRp5123
sg1678
g5
((lp5124
g725
atRp5125
sS'b0813'
p5126
g5
((lp5127
g4364
aS'THRt2pp'
p5128
atRp5129
sg1684
g5
((lp5130
g1686
ag1687
atRp5131
sg1689
g5
((lp5132
g1691
atRp5133
sg1544
g5
((lp5134
g1546
atRp5135
sg1847
g5
((lp5136
g1546
atRp5137
sg1705
g5
((lp5138
g1063
ag1707
atRp5139
sg1709
g5
((lp5140
g1707
atRp5141
sg1712
g5
((lp5142
g360
ag482
atRp5143
sg1719
g5
((lp5144
g1721
atRp5145
sg1723
g5
((lp5146
g599
atRp5147
sg1726
g5
((lp5148
g1728
atRp5149
sg1730
g5
((lp5150
g1732
ag1733
atRp5151
sS'b3161'
p5152
g5
((lp5153
g4500
atRp5154
sg1735
g5
((lp5155
g1542
atRp5156
sg1738
g5
((lp5157
g1740
atRp5158
sS'b1623'
p5159
g5
((lp5160
S'DADA'
p5161
atRp5162
sg1746
g5
((lp5163
g1748
atRp5164
sg1750
g5
((lp5165
g1752
ag1754
ag530
atRp5166
sg206
g5
((lp5167
g208
atRp5168
sg2963
g5
((lp5169
g2965
atRp5170
sg1764
g5
((lp5171
g1766
atRp5172
sg1768
g5
((lp5173
g1770
atRp5174
sg1772
g5
((lp5175
g1774
atRp5176
sg532
g5
((lp5177
g534
atRp5178
sg1779
g5
((lp5179
g1781
atRp5180
sg601
g5
((lp5181
g603
atRp5182
sg1810
g5
((lp5183
g15
ag718
atRp5184
sg1813
g5
((lp5185
g1815
atRp5186
sg69
g5
((lp5187
S'PGK'
p5188
atRp5189
sg1821
g5
((lp5190
g1823
atRp5191
sg671
g5
((lp5192
g673
ag674
atRp5193
sg1829
g5
((lp5194
g1831
atRp5195
sg1833
g5
((lp5196
g27
ag28
atRp5197
sg1836
g5
((lp5198
g1838
atRp5199
sg1840
g5
((lp5200
g1842
atRp5201
sg1844
g5
((lp5202
g1838
atRp5203
sg766
g5
((lp5204
g768
atRp5205
sg1850
g5
((lp5206
g189
ag191
ag2175
ag192
ag4434
atRp5207
sg1853
g5
((lp5208
g607
atRp5209
sg511
g5
((lp5210
g180
atRp5211
sg1859
g5
((lp5212
g1861
atRp5213
sg1866
g5
((lp5214
g2107
atRp5215
sg1875
g5
((lp5216
g1877
atRp5217
sg1879
g5
((lp5218
g1881
ag1882
ag1883
atRp5219
sg1888
g5
((lp5220
g1890
ag459
atRp5221
sg1892
g5
((lp5222
g525
atRp5223
sg1895
g5
((lp5224
g1897
atRp5225
sS'b3823'
p5226
g5
((lp5227
g5128
atRp5228
sg1899
g5
((lp5229
g15
atRp5230
sg1902
g5
((lp5231
g1904
atRp5232
sg1906
g5
((lp5233
g1199
atRp5234
sg1913
g5
((lp5235
g1915
ag463
ag1916
atRp5236
sg1918
g5
((lp5237
g49
ag367
ag270
ag3336
ag369
atRp5238
sg1921
g5
((lp5239
g1923
ag1924
atRp5240
sg1926
g5
((lp5241
g1928
atRp5242
sg1930
g5
((lp5243
g861
ag862
atRp5244
sg1933
g5
((lp5245
g1928
atRp5246
sg1936
g5
((lp5247
g1938
ag1939
atRp5248
sg1941
g5
((lp5249
g1943
atRp5250
sg1945
g5
((lp5251
g1947
atRp5252
sg1949
g5
((lp5253
g1951
atRp5254
sg1953
g5
((lp5255
g1955
atRp5256
sg927
g5
((lp5257
g266
atRp5258
sg1960
g5
((lp5259
g1838
atRp5260
sg1963
g5
((lp5261
g980
atRp5262
sg1966
g5
((lp5263
g1968
atRp5264
sg1970
g5
((lp5265
g980
atRp5266
sg1973
g5
((lp5267
g1838
atRp5268
sg1976
g5
((lp5269
g1838
atRp5270
sg1982
g5
((lp5271
g1238
atRp5272
sg1909
g5
((lp5273
g1911
atRp5274
sg1988
g5
((lp5275
g599
atRp5276
sg1991
g5
((lp5277
g1993
atRp5278
sg1995
g5
((lp5279
g1823
atRp5280
sg1998
g5
((lp5281
g2000
atRp5282
sg2002
g5
((lp5283
g2004
ag2005
atRp5284
sg2007
g5
((lp5285
g2009
atRp5286
sg2011
g5
((lp5287
g1740
atRp5288
sg2014
g5
((lp5289
g506
atRp5290
sg2017
g5
((lp5291
g3825
ag2019
atRp5292
sg2021
g5
((lp5293
g506
atRp5294
sS'b1109'
p5295
g5
((lp5296
S'NADH10'
p5297
atRp5298
sg2024
g5
((lp5299
g2026
atRp5300
sg2028
g5
((lp5301
g1842
atRp5302
sg2035
g5
((lp5303
g2037
atRp5304
sg2039
g5
((lp5305
g2041
atRp5306
sg1742
g5
((lp5307
g1744
atRp5308
sg2047
g5
((lp5309
g2049
atRp5310
sg2051
g5
((lp5311
g2053
ag2054
atRp5312
sg2056
g5
((lp5313
g2058
atRp5314
sg2060
g5
((lp5315
g4876
atRp5316
sg2066
g5
((lp5317
g1255
atRp5318
sg2069
g5
((lp5319
g367
ag3336
atRp5320
sg2072
g5
((lp5321
g2074
atRp5322
sg2076
g5
((lp5323
g2078
atRp5324
sg2080
g5
((lp5325
g2082
ag217
atRp5326
sg2084
g5
((lp5327
g2086
atRp5328
sg2088
g5
((lp5329
g400
atRp5330
sg2091
g5
((lp5331
g2093
atRp5332
ssS'SUCC_BATCH_mu=0.44_S'
p5333
(dp5334
g13
g5
((lp5335
g15
atRp5336
sg17
g5
((lp5337
g19
atRp5338
sg21
g5
((lp5339
g23
atRp5340
sg25
g5
((lp5341
g27
ag28
atRp5342
sg30
g5
((lp5343
g2106
ag2107
atRp5344
sg34
g5
((lp5345
g36
ag37
atRp5346
sg39
g5
((lp5347
g41
atRp5348
sg43
g5
((lp5349
g45
atRp5350
sg169
g5
((lp5351
g171
atRp5352
sg51
g5
((lp5353
g53
ag54
atRp5354
sg56
g5
((lp5355
g58
ag59
ag60
ag61
ag2120
ag62
ag63
atRp5356
sg65
g5
((lp5357
g67
atRp5358
sg69
g5
((lp5359
g5188
atRp5360
sg3166
g5
((lp5361
g3168
atRp5362
sg73
g5
((lp5363
g75
atRp5364
sg77
g5
((lp5365
g79
ag80
ag95
ag82
ag83
ag84
aS'Htex'
p5366
ag86
ag87
ag89
ag91
ag92
ag4391
ag104
ag93
ag4392
ag94
ag81
ag96
ag97
ag99
aS'ASCBtex'
p5367
aS'GLYCtex_reverse'
p5368
ag98
aS'SUCCtex'
p5369
ag102
aS'SERtex_reverse'
p5370
ag103
ag4394
ag101
atRp5371
sg106
g5
((lp5372
g2133
atRp5373
sg110
g5
((lp5374
g112
atRp5375
sg114
g5
((lp5376
g116
atRp5377
sg118
g5
((lp5378
g120
atRp5379
sg122
g5
((lp5380
g124
atRp5381
sg126
g5
((lp5382
g128
ag129
atRp5383
sg131
g5
((lp5384
g112
atRp5385
sg134
g5
((lp5386
g112
atRp5387
sg137
g5
((lp5388
g112
atRp5389
sg140
g5
((lp5390
S'MTHFC'
p5391
aS'MTHFD'
p5392
atRp5393
sg145
g5
((lp5394
g112
atRp5395
sg536
g5
((lp5396
g112
atRp5397
sg152
g5
((lp5398
g154
atRp5399
sg156
g5
((lp5400
g158
ag159
atRp5401
sg161
g5
((lp5402
g163
ag164
atRp5403
sg166
g5
((lp5404
g163
ag164
atRp5405
sg47
g5
((lp5406
g49
atRp5407
sg173
g5
((lp5408
g175
ag176
atRp5409
sg178
g5
((lp5410
g2170
ag180
atRp5411
sg701
g5
((lp5412
g506
atRp5413
sg186
g5
((lp5414
g189
ag190
ag2175
ag192
ag191
atRp5415
sg914
g5
((lp5416
g916
atRp5417
sg198
g5
((lp5418
g200
atRp5419
sg202
g5
((lp5420
g3255
atRp5421
sg1757
g5
((lp5422
g1717
atRp5423
sg210
g5
((lp5424
g212
atRp5425
sg214
g5
((lp5426
g217
atRp5427
sg219
g5
((lp5428
g221
ag222
ag223
ag225
ag226
ag227
ag228
atRp5429
sg230
g5
((lp5430
g232
ag233
ag234
atRp5431
sg237
g5
((lp5432
g223
atRp5433
sg240
g5
((lp5434
g242
atRp5435
sg244
g5
((lp5436
g246
atRp5437
sg248
g5
((lp5438
g250
ag251
atRp5439
sg253
g5
((lp5440
g256
ag257
ag258
atRp5441
sg260
g5
((lp5442
g4464
atRp5443
sg264
g5
((lp5444
g266
atRp5445
sg268
g5
((lp5446
g270
atRp5447
sg272
g5
((lp5448
g274
atRp5449
sg276
g5
((lp5450
g278
atRp5451
sg280
g5
((lp5452
g282
atRp5453
sg284
g5
((lp5454
g286
atRp5455
sg288
g5
((lp5456
g290
atRp5457
sg292
g5
((lp5458
g294
atRp5459
sg296
g5
((lp5460
g298
atRp5461
sg300
g5
((lp5462
g79
ag80
ag95
ag82
ag83
ag84
ag5366
ag86
ag87
ag89
ag91
ag92
ag4391
ag104
ag93
ag4392
ag94
ag81
ag96
ag97
ag99
ag5367
ag5368
ag98
ag5369
ag102
ag5370
ag103
ag4394
ag101
atRp5463
sg303
g5
((lp5464
g305
atRp5465
sg307
g5
((lp5466
g309
atRp5467
sg315
g5
((lp5468
g317
atRp5469
sg319
g5
((lp5470
g321
atRp5471
sg323
g5
((lp5472
g325
atRp5473
sg327
g5
((lp5474
g329
atRp5475
sg331
g5
((lp5476
g333
atRp5477
sg339
g5
((lp5478
g341
atRp5479
sg343
g5
((lp5480
g341
atRp5481
sg346
g5
((lp5482
g348
atRp5483
sg354
g5
((lp5484
g356
atRp5485
sg358
g5
((lp5486
g360
atRp5487
sg362
g5
((lp5488
g2107
atRp5489
sg365
g5
((lp5490
g49
ag367
ag270
ag369
atRp5491
sg371
g5
((lp5492
g75
ag4522
atRp5493
sg375
g5
((lp5494
g377
atRp5495
sg379
g5
((lp5496
g381
atRp5497
sg383
g5
((lp5498
g385
atRp5499
sg387
g5
((lp5500
g389
atRp5501
sg1776
g5
((lp5502
g341
atRp5503
sg394
g5
((lp5504
g396
atRp5505
sg398
g5
((lp5506
g400
atRp5507
sg402
g5
((lp5508
g112
atRp5509
sg405
g5
((lp5510
g407
ag408
atRp5511
sg410
g5
((lp5512
g407
ag408
atRp5513
sg391
g5
((lp5514
g112
atRp5515
sg417
g5
((lp5516
g112
atRp5517
sg420
g5
((lp5518
g422
atRp5519
sg427
g5
((lp5520
g429
ag430
ag431
ag432
atRp5521
sg434
g5
((lp5522
g436
ag437
atRp5523
sg439
g5
((lp5524
g441
ag442
atRp5525
sg444
g5
((lp5526
g446
atRp5527
sg448
g5
((lp5528
g450
atRp5529
sg457
g5
((lp5530
g459
atRp5531
sg461
g5
((lp5532
g463
atRp5533
sg465
g5
((lp5534
g360
atRp5535
sg468
g5
((lp5536
g266
atRp5537
sg471
g5
((lp5538
g473
ag474
atRp5539
sg476
g5
((lp5540
g478
atRp5541
sg480
g5
((lp5542
g482
atRp5543
sg484
g5
((lp5544
g486
atRp5545
sg488
g5
((lp5546
g490
atRp5547
sg492
g5
((lp5548
g494
atRp5549
sg496
g5
((lp5550
g498
atRp5551
sg500
g5
((lp5552
g502
atRp5553
sg504
g5
((lp5554
g506
atRp5555
sg508
g5
((lp5556
g506
atRp5557
sg514
g5
((lp5558
g516
ag517
atRp5559
sg519
g5
((lp5560
g521
atRp5561
sg523
g5
((lp5562
g525
atRp5563
sg527
g5
((lp5564
g529
ag530
atRp5565
sg2332
g5
((lp5566
S'GLYCtpp'
p5567
atRp5568
sg539
g5
((lp5569
g541
atRp5570
sg543
g5
((lp5571
g545
atRp5572
sg547
g5
((lp5573
g266
atRp5574
sg550
g5
((lp5575
g552
atRp5576
sg558
g5
((lp5577
g560
atRp5578
sg562
g5
((lp5579
g564
atRp5580
sg566
g5
((lp5581
g4610
atRp5582
sg573
g5
((lp5583
g575
ag576
ag577
ag5567
ag578
ag552
ag579
ag580
ag541
ag333
ag581
ag582
atRp5584
sg2353
g5
((lp5585
g2355
atRp5586
sg584
g5
((lp5587
g367
ag369
atRp5588
sg587
g5
((lp5589
g589
ag590
ag591
ag592
ag593
ag594
ag595
atRp5590
sg597
g5
((lp5591
g599
atRp5592
sg601
g5
((lp5593
g603
atRp5594
sg605
g5
((lp5595
g607
atRp5596
sg619
g5
((lp5597
g621
atRp5598
sg623
g5
((lp5599
g625
atRp5600
sg630
g5
((lp5601
g632
ag633
aS'EAR160y'
p5602
atRp5603
sg635
g5
((lp5604
g637
atRp5605
sg639
g5
((lp5606
g641
atRp5607
sg643
g5
((lp5608
g645
atRp5609
sg651
g5
((lp5610
g653
atRp5611
sg655
g5
((lp5612
g657
atRp5613
sg659
g5
((lp5614
g661
atRp5615
sg663
g5
((lp5616
g665
atRp5617
sg667
g5
((lp5618
g669
atRp5619
sg676
g5
((lp5620
g381
atRp5621
sg679
g5
((lp5622
g681
atRp5623
sg683
g5
((lp5624
g685
atRp5625
sg687
g5
((lp5626
g657
atRp5627
sg690
g5
((lp5628
g657
atRp5629
sg182
g5
((lp5630
g184
atRp5631
sg704
g5
((lp5632
g706
atRp5633
sg1438
g5
((lp5634
g1440
atRp5635
sg716
g5
((lp5636
g718
atRp5637
sg720
g5
((lp5638
g191
atRp5639
sg723
g5
((lp5640
g725
atRp5641
sg727
g5
((lp5642
g222
ag226
atRp5643
sg730
g5
((lp5644
g732
atRp5645
sg734
g5
((lp5646
g736
atRp5647
sg738
g5
((lp5648
g740
atRp5649
sg742
g5
((lp5650
g744
atRp5651
sg746
g5
((lp5652
g645
atRp5653
sg757
g5
((lp5654
g759
ag760
atRp5655
sg762
g5
((lp5656
g764
atRp5657
sg770
g5
((lp5658
g772
atRp5659
sg774
g5
((lp5660
g599
atRp5661
sg1760
g5
((lp5662
g1762
atRp5663
sg781
g5
((lp5664
g783
atRp5665
sg785
g5
((lp5666
g787
atRp5667
sg789
g5
((lp5668
g791
atRp5669
sg793
g5
((lp5670
g718
atRp5671
sg796
g5
((lp5672
g798
ag799
ag800
ag564
ag801
ag802
ag803
atRp5673
sg805
g5
((lp5674
g807
atRp5675
sg809
g5
((lp5676
g811
ag812
ag813
ag814
ag815
ag816
ag817
ag818
ag819
ag820
ag821
ag822
ag823
ag824
atRp5677
sg1386
g5
((lp5678
g1388
atRp5679
sg830
g5
((lp5680
g832
atRp5681
sg834
g5
((lp5682
g811
ag812
ag813
ag814
ag815
ag816
ag817
ag818
ag819
ag820
ag821
ag822
ag823
ag824
ag836
atRp5683
sg838
g5
((lp5684
g840
atRp5685
sg842
g5
((lp5686
g798
ag799
ag800
ag564
ag801
ag802
ag803
atRp5687
sg845
g5
((lp5688
g847
atRp5689
sg849
g5
((lp5690
g377
atRp5691
sg852
g5
((lp5692
g329
atRp5693
sg855
g5
((lp5694
g857
atRp5695
sg859
g5
((lp5696
g861
ag862
atRp5697
sg864
g5
((lp5698
g861
ag862
atRp5699
sg867
g5
((lp5700
g869
atRp5701
sg871
g5
((lp5702
g599
atRp5703
sg874
g5
((lp5704
g876
atRp5705
sg878
g5
((lp5706
g880
atRp5707
sg882
g5
((lp5708
g884
atRp5709
sg886
g5
((lp5710
g888
atRp5711
sS'b2500'
p5712
g5
((lp5713
S'GARFT'
p5714
atRp5715
sg894
g5
((lp5716
g896
atRp5717
sg898
g5
((lp5718
g892
atRp5719
sg901
g5
((lp5720
g903
atRp5721
sg905
g5
((lp5722
g907
ag908
atRp5723
sg910
g5
((lp5724
g912
atRp5725
sg3244
g5
((lp5726
g3246
atRp5727
sg2497
g5
((lp5728
g2499
atRp5729
sg921
g5
((lp5730
g621
atRp5731
sg924
g5
((lp5732
g892
atRp5733
sg930
g5
((lp5734
g189
atRp5735
sg933
g5
((lp5736
g935
atRp5737
sg937
g5
((lp5738
g935
atRp5739
sg708
g5
((lp5740
g710
atRp5741
sg712
g5
((lp5742
g714
atRp5743
sg609
g5
((lp5744
g506
atRp5745
sg627
g5
((lp5746
g506
atRp5747
sg952
g5
((lp5748
g954
atRp5749
sg956
g5
((lp5750
g506
atRp5751
sg959
g5
((lp5752
g961
ag962
atRp5753
sg753
g5
((lp5754
g755
ag710
atRp5755
sg971
g5
((lp5756
g973
atRp5757
sg975
g5
((lp5758
g621
atRp5759
sg978
g5
((lp5760
g980
atRp5761
sg982
g5
((lp5762
g984
ag985
ag986
atRp5763
sg988
g5
((lp5764
g990
atRp5765
sg992
g5
((lp5766
g990
atRp5767
sg995
g5
((lp5768
g2499
aS'GLYCL'
p5769
ag990
atRp5770
sg998
g5
((lp5771
g1000
atRp5772
sg1002
g5
((lp5773
g1004
atRp5774
sg1006
g5
((lp5775
g54
atRp5776
sg1009
g5
((lp5777
g1011
atRp5778
sg1013
g5
((lp5779
g15
ag718
atRp5780
sg1017
g5
((lp5781
g1019
atRp5782
sg1021
g5
((lp5783
g1023
atRp5784
sg1411
g5
((lp5785
g454
ag455
atRp5786
sg1029
g5
((lp5787
g454
ag455
atRp5788
sg1032
g5
((lp5789
g454
ag455
atRp5790
sg1035
g5
((lp5791
g454
ag455
atRp5792
sg1427
g5
((lp5793
g454
ag455
atRp5794
sg1041
g5
((lp5795
g454
ag455
atRp5796
sg452
g5
((lp5797
g454
ag455
atRp5798
sg1442
g5
((lp5799
g502
atRp5800
sg1051
g5
((lp5801
g1053
atRp5802
sg1055
g5
((lp5803
g454
ag455
atRp5804
sg1058
g5
((lp5805
g892
ag1060
ag1061
ag1062
ag1063
ag1064
atRp5806
sg1066
g5
((lp5807
g1068
ag1069
atRp5808
sg1071
g5
((lp5809
g1073
atRp5810
sg1075
g5
((lp5811
g1077
atRp5812
sg1079
g5
((lp5813
g1073
atRp5814
sg1082
g5
((lp5815
g1084
ag1085
atRp5816
sg1087
g5
((lp5817
g1073
atRp5818
sg1090
g5
((lp5819
g1092
atRp5820
sg1137
g5
((lp5821
g1139
atRp5822
sg1098
g5
((lp5823
g1100
ag1101
atRp5824
sg1103
g5
((lp5825
g1062
ag1061
atRp5826
sg1106
g5
((lp5827
g1108
atRp5828
sg1110
g5
((lp5829
g1112
atRp5830
sg1117
g5
((lp5831
g740
atRp5832
sg1120
g5
((lp5833
g190
ag2175
ag192
atRp5834
sg1123
g5
((lp5835
g190
ag2175
ag192
atRp5836
sg1126
g5
((lp5837
g1128
atRp5838
sg1130
g5
((lp5839
g1132
atRp5840
sg1134
g5
((lp5841
g1128
atRp5842
sg1141
g5
((lp5843
g1143
atRp5844
sg1145
g5
((lp5845
g1147
atRp5846
sg1149
g5
((lp5847
g1151
atRp5848
sg1153
g5
((lp5849
g341
atRp5850
sg1156
g5
((lp5851
g1158
atRp5852
sg1167
g5
((lp5853
g534
atRp5854
sg1170
g5
((lp5855
g847
atRp5856
sg1173
g5
((lp5857
g657
atRp5858
sg1176
g5
((lp5859
g154
atRp5860
sg1179
g5
((lp5861
g552
atRp5862
sg1182
g5
((lp5863
g4876
atRp5864
sg1186
g5
((lp5865
g1188
atRp5866
sg1190
g5
((lp5867
g266
atRp5868
sg1193
g5
((lp5869
g3825
atRp5870
sS'b3116'
p5871
g5
((lp5872
S'SERt2rpp_reverse'
p5873
atRp5874
sg1197
g5
((lp5875
g1199
atRp5876
sg1201
g5
((lp5877
g599
atRp5878
sg1204
g5
((lp5879
g1206
atRp5880
sg1208
g5
((lp5881
g1206
atRp5882
sg1211
g5
((lp5883
g1213
atRp5884
sg1215
g5
((lp5885
g1206
atRp5886
sg2645
g5
((lp5887
g2499
atRp5888
sg1218
g5
((lp5889
g1220
atRp5890
sg1222
g5
((lp5891
g1206
atRp5892
sg1225
g5
((lp5893
g1227
atRp5894
sg1229
g5
((lp5895
g1227
atRp5896
sg1232
g5
((lp5897
g1234
atRp5898
sg1236
g5
((lp5899
g1238
atRp5900
sg1240
g5
((lp5901
g429
ag1242
ag431
atRp5902
sS'b2903'
p5903
g5
((lp5904
g5769
atRp5905
sS'b2904'
p5906
g5
((lp5907
g5769
atRp5908
sS'b2905'
p5909
g5
((lp5910
g5769
atRp5911
sg1244
g5
((lp5912
g1246
ag58
ag59
ag1247
ag60
ag61
ag2120
ag62
ag63
atRp5913
sg1249
g5
((lp5914
g1251
atRp5915
sg1253
g5
((lp5916
g1255
atRp5917
sg1257
g5
((lp5918
g1259
atRp5919
sg1261
g5
((lp5920
g1263
atRp5921
sg1265
g5
((lp5922
g984
ag985
atRp5923
sg1268
g5
((lp5924
g454
ag455
atRp5925
sg1271
g5
((lp5926
g454
ag455
atRp5927
sg1274
g5
((lp5928
g454
ag455
atRp5929
sg1277
g5
((lp5930
g454
ag455
atRp5931
sg1280
g5
((lp5932
g657
atRp5933
sg1283
g5
((lp5934
g973
atRp5935
sg1286
g5
((lp5936
g1288
atRp5937
sg1290
g5
((lp5938
g1292
atRp5939
sg1294
g5
((lp5940
g1296
atRp5941
sg1298
g5
((lp5942
g1300
atRp5943
sg1302
g5
((lp5944
g1304
ag1305
atRp5945
sg1307
g5
((lp5946
g1309
atRp5947
sg1311
g5
((lp5948
g1313
atRp5949
sg1315
g5
((lp5950
g1317
atRp5951
sg1319
g5
((lp5952
g116
atRp5953
sg1322
g5
((lp5954
g1324
atRp5955
sg1326
g5
((lp5956
g1328
atRp5957
sg1330
g5
((lp5958
g2732
atRp5959
sg1334
g5
((lp5960
g407
ag408
atRp5961
sg1337
g5
((lp5962
g1339
atRp5963
sg1341
g5
((lp5964
g1343
atRp5965
sg1345
g5
((lp5966
g2741
atRp5967
sg1349
g5
((lp5968
g1351
atRp5969
sg1353
g5
((lp5970
g552
atRp5971
sg1356
g5
((lp5972
g1358
ag1359
atRp5973
sg1361
g5
((lp5974
g1363
atRp5975
sg1365
g5
((lp5976
g1092
atRp5977
sg1368
g5
((lp5978
g407
ag408
atRp5979
sg1371
g5
((lp5980
g1373
atRp5981
sg1375
g5
((lp5982
g28
atRp5983
sg1378
g5
((lp5984
g1380
atRp5985
sg1382
g5
((lp5986
g1384
atRp5987
sg1390
g5
((lp5988
g1392
atRp5989
sg1394
g5
((lp5990
g266
atRp5991
sg1397
g5
((lp5992
g1358
ag1359
atRp5993
sg1400
g5
((lp5994
g1402
atRp5995
sg1404
g5
((lp5996
g1011
atRp5997
sg1407
g5
((lp5998
g1409
atRp5999
sg1025
g5
((lp6000
g1027
atRp6001
sg1414
g5
((lp6002
g1416
atRp6003
sg1421
g5
((lp6004
g669
atRp6005
sg1424
g5
((lp6006
g545
atRp6007
sg1038
g5
((lp6008
g502
atRp6009
sg1430
g5
((lp6010
g1432
atRp6011
sg1434
g5
((lp6012
g1436
atRp6013
sg1114
g5
((lp6014
g454
ag455
atRp6015
sg1445
g5
((lp6016
g1447
atRp6017
sS'b2796'
p6018
g5
((lp6019
g5873
atRp6020
sg1452
g5
((lp6021
g367
atRp6022
sg1463
g5
((lp6023
g1465
atRp6024
sg2803
g5
((lp6025
g2355
atRp6026
sg1467
g5
((lp6027
g1469
atRp6028
sg2043
g5
((lp6029
g2045
atRp6030
sg1474
g5
((lp6031
g4876
atRp6032
sg1477
g5
((lp6033
g154
atRp6034
sg1480
g5
((lp6035
g954
atRp6036
sg1044
g5
((lp6037
g502
atRp6038
sg1483
g5
((lp6039
g892
atRp6040
sg1486
g5
((lp6041
g1488
ag1489
atRp6042
sg1491
g5
((lp6043
g1493
atRp6044
sg1495
g5
((lp6045
g1497
atRp6046
sg1499
g5
((lp6047
g1501
atRp6048
sg1506
g5
((lp6049
g1508
atRp6050
sg1510
g5
((lp6051
g1512
atRp6052
sg1514
g5
((lp6053
g1073
atRp6054
sg1517
g5
((lp6055
g1519
atRp6056
sg1521
g5
((lp6057
g221
atRp6058
sg1524
g5
((lp6059
g1296
atRp6060
sg1527
g5
((lp6061
g1529
atRp6062
sg1531
g5
((lp6063
g1533
atRp6064
sg1535
g5
((lp6065
g1537
atRp6066
sg1539
g5
((lp6067
g1541
ag1542
atRp6068
sg647
g5
((lp6069
g649
atRp6070
sg1548
g5
((lp6071
g649
atRp6072
sg1555
g5
((lp6073
g1557
atRp6074
sg1572
g5
((lp6075
g1574
atRp6076
sg4040
g5
((lp6077
g4042
atRp6078
sg1576
g5
((lp6079
g1313
atRp6080
sg826
g5
((lp6081
g828
atRp6082
sg2858
g5
((lp6083
g2355
atRp6084
sg1583
g5
((lp6085
g1585
atRp6086
sg1587
g5
((lp6087
g1589
ag1139
ag1590
atRp6088
sg1592
g5
((lp6089
g907
ag908
atRp6090
sg1595
g5
((lp6091
g1597
ag1598
atRp6092
sg1600
g5
((lp6093
g1597
ag1602
ag1060
ag1061
ag1598
ag1062
atRp6094
sg1604
g5
((lp6095
g1606
atRp6096
sg1608
g5
((lp6097
g3825
atRp6098
sg1611
g5
((lp6099
g3255
atRp6100
sg1614
g5
((lp6101
g1288
atRp6102
sg1617
g5
((lp6103
g225
ag227
ag228
atRp6104
sg1620
g5
((lp6105
S'SSALx'
p6106
ag1606
atRp6107
sg967
g5
((lp6108
g969
atRp6109
sg1627
g5
((lp6110
g1343
atRp6111
sg1630
g5
((lp6112
g429
ag1242
ag1632
atRp6113
sg1634
g5
((lp6114
g79
ag80
ag95
ag82
ag83
ag84
ag5366
ag86
ag87
ag89
ag91
ag92
ag4391
ag104
ag93
ag4392
ag94
ag81
ag96
ag97
ag99
ag5367
ag5368
ag98
ag5369
ag102
ag5370
ag103
ag4394
ag101
atRp6115
sg1637
g5
((lp6116
g912
atRp6117
sg1640
g5
((lp6118
g1642
atRp6119
sg1644
g5
((lp6120
g1646
atRp6121
sg1648
g5
((lp6122
g116
atRp6123
sg1651
g5
((lp6124
g79
ag80
ag95
ag82
ag83
ag84
ag5366
ag86
ag87
ag89
ag91
ag92
ag4391
ag104
ag93
ag4392
ag94
ag81
ag96
ag97
ag99
ag5367
ag5368
ag98
ag5369
ag102
ag5370
ag103
ag4394
ag101
atRp6125
sg1654
g5
((lp6126
g158
ag1656
atRp6127
sg1658
g5
((lp6128
g1660
atRp6129
sg1665
g5
((lp6130
g2741
atRp6131
sg1672
g5
((lp6132
g2741
atRp6133
sg1678
g5
((lp6134
g725
atRp6135
sg1684
g5
((lp6136
g1686
ag1687
atRp6137
sg1689
g5
((lp6138
g1691
atRp6139
sg1544
g5
((lp6140
g1546
atRp6141
sg1847
g5
((lp6142
g1546
atRp6143
sg1705
g5
((lp6144
g1063
ag1707
atRp6145
sg1709
g5
((lp6146
g1707
atRp6147
sg1712
g5
((lp6148
g360
ag482
atRp6149
sg1715
g5
((lp6150
g1717
atRp6151
sg1719
g5
((lp6152
g1721
atRp6153
sg1723
g5
((lp6154
g599
atRp6155
sg1726
g5
((lp6156
g1728
atRp6157
sg1730
g5
((lp6158
g1732
ag1733
atRp6159
sg1735
g5
((lp6160
g1542
atRp6161
sg890
g5
((lp6162
g892
atRp6163
sg1738
g5
((lp6164
g1740
atRp6165
sg1746
g5
((lp6166
g1748
atRp6167
sg1750
g5
((lp6168
g1752
ag1753
ag1754
ag530
ag1755
atRp6169
sg206
g5
((lp6170
g208
atRp6171
sg1764
g5
((lp6172
g1766
atRp6173
sg1768
g5
((lp6174
g1770
atRp6175
sg532
g5
((lp6176
g534
atRp6177
sg1779
g5
((lp6178
g1781
atRp6179
sg1783
g5
((lp6180
g1785
atRp6181
sg1787
g5
((lp6182
g1789
atRp6183
sg1791
g5
((lp6184
g1785
atRp6185
sg1794
g5
((lp6186
g1785
atRp6187
sg1797
g5
((lp6188
g1799
atRp6189
sg1801
g5
((lp6190
g661
atRp6191
sg1804
g5
((lp6192
g847
atRp6193
sg1810
g5
((lp6194
g15
ag718
atRp6195
sg1813
g5
((lp6196
g1815
atRp6197
sg1817
g5
((lp6198
g4437
atRp6199
sg1821
g5
((lp6200
g1823
atRp6201
sg671
g5
((lp6202
g674
atRp6203
sg1829
g5
((lp6204
g1831
atRp6205
sg1833
g5
((lp6206
g27
ag28
atRp6207
sg1836
g5
((lp6208
g1838
ag1785
atRp6209
sg1840
g5
((lp6210
g1842
atRp6211
sg1844
g5
((lp6212
g1838
ag1785
atRp6213
sg766
g5
((lp6214
g768
atRp6215
sg1850
g5
((lp6216
g189
ag190
ag2175
ag192
ag191
atRp6217
sg1853
g5
((lp6218
g607
atRp6219
sg511
g5
((lp6220
g180
atRp6221
sg1859
g5
((lp6222
g1861
atRp6223
sg1866
g5
((lp6224
g2107
atRp6225
sg1872
g5
((lp6226
g764
atRp6227
sg1875
g5
((lp6228
g1877
atRp6229
sg1879
g5
((lp6230
g1881
ag1882
ag1883
atRp6231
sg1888
g5
((lp6232
g1890
ag459
atRp6233
sg1892
g5
((lp6234
g525
atRp6235
sg1895
g5
((lp6236
g1897
atRp6237
sg1899
g5
((lp6238
g15
atRp6239
sg1902
g5
((lp6240
g1904
atRp6241
sg1906
g5
((lp6242
g1199
atRp6243
sg1913
g5
((lp6244
g1915
ag463
ag1916
atRp6245
sg1918
g5
((lp6246
g49
ag367
ag270
ag369
atRp6247
sg1921
g5
((lp6248
g1923
ag1924
atRp6249
sg1926
g5
((lp6250
g1928
atRp6251
sg1930
g5
((lp6252
g861
ag862
atRp6253
sg1933
g5
((lp6254
g1928
atRp6255
sg1936
g5
((lp6256
g1938
ag1939
atRp6257
sg1941
g5
((lp6258
g1943
atRp6259
sg1945
g5
((lp6260
g1947
atRp6261
sg1949
g5
((lp6262
g1951
atRp6263
sg1953
g5
((lp6264
g1955
atRp6265
sg927
g5
((lp6266
g266
atRp6267
sg1960
g5
((lp6268
g1838
atRp6269
sg1963
g5
((lp6270
g980
atRp6271
sg1966
g5
((lp6272
g1968
atRp6273
sg1970
g5
((lp6274
g980
atRp6275
sg1973
g5
((lp6276
g1838
atRp6277
sg1976
g5
((lp6278
g1838
atRp6279
sg1982
g5
((lp6280
g1238
atRp6281
sg1909
g5
((lp6282
g1911
atRp6283
sg1988
g5
((lp6284
g599
atRp6285
sg1991
g5
((lp6286
g1993
atRp6287
sg1995
g5
((lp6288
g1823
atRp6289
sg1998
g5
((lp6290
g2000
atRp6291
sg2002
g5
((lp6292
g2004
ag2005
atRp6293
sg2007
g5
((lp6294
g2009
atRp6295
sg2011
g5
((lp6296
g1740
atRp6297
sg2014
g5
((lp6298
g506
atRp6299
sg2017
g5
((lp6300
g3825
atRp6301
sg2021
g5
((lp6302
g506
atRp6303
sg2024
g5
((lp6304
g2026
atRp6305
sg2028
g5
((lp6306
g1842
atRp6307
sg2035
g5
((lp6308
g2037
atRp6309
sg2039
g5
((lp6310
g2041
atRp6311
sg1742
g5
((lp6312
g1744
atRp6313
sg2047
g5
((lp6314
g2049
atRp6315
sg2051
g5
((lp6316
g2053
ag2054
atRp6317
sg2056
g5
((lp6318
g2058
atRp6319
sg2060
g5
((lp6320
g4876
atRp6321
sg2066
g5
((lp6322
g1255
atRp6323
sg2069
g5
((lp6324
g367
atRp6325
sg2072
g5
((lp6326
g2074
atRp6327
sg2076
g5
((lp6328
g2078
atRp6329
sg2080
g5
((lp6330
g2082
ag217
atRp6331
sg2084
g5
((lp6332
g2086
atRp6333
sg2088
g5
((lp6334
g400
atRp6335
sS'b3528'
p6336
g5
((lp6337
S'SUCCt2_2pp'
p6338
atRp6339
sg2091
g5
((lp6340
g2093
atRp6341
ssS'ACE_BATCH_mu=0.3_S'
p6342
(dp6343
g13
g5
((lp6344
g15
atRp6345
sg17
g5
((lp6346
g19
atRp6347
sg21
g5
((lp6348
g23
atRp6349
sg25
g5
((lp6350
g27
ag28
atRp6351
sg30
g5
((lp6352
g2106
ag2107
atRp6353
sg34
g5
((lp6354
g36
ag37
atRp6355
sg39
g5
((lp6356
g41
atRp6357
sg43
g5
((lp6358
g45
atRp6359
sg169
g5
((lp6360
g171
atRp6361
sg51
g5
((lp6362
g53
ag54
atRp6363
sg56
g5
((lp6364
g58
ag59
ag60
ag2120
ag62
ag63
atRp6365
sg65
g5
((lp6366
g67
atRp6367
sg69
g5
((lp6368
g5188
atRp6369
sg73
g5
((lp6370
g75
atRp6371
sg77
g5
((lp6372
g79
ag80
ag4391
ag82
ag83
ag84
ag86
ag87
ag88
ag89
ag91
ag92
ag93
ag4392
ag94
aS'ACtex'
p6373
ag95
ag96
ag97
ag99
ag98
ag81
ag102
ag103
ag101
atRp6374
sg110
g5
((lp6375
g112
atRp6376
sg114
g5
((lp6377
g116
atRp6378
sg118
g5
((lp6379
g120
atRp6380
sg122
g5
((lp6381
g124
atRp6382
sg126
g5
((lp6383
g128
ag129
atRp6384
sg131
g5
((lp6385
g112
atRp6386
sg134
g5
((lp6387
g112
atRp6388
sg137
g5
((lp6389
g112
atRp6390
sg140
g5
((lp6391
g142
ag143
atRp6392
sg145
g5
((lp6393
g112
atRp6394
sg536
g5
((lp6395
g112
atRp6396
sg152
g5
((lp6397
g154
atRp6398
sg156
g5
((lp6399
g158
ag159
atRp6400
sg161
g5
((lp6401
g163
ag164
atRp6402
sg166
g5
((lp6403
g163
ag164
atRp6404
sg47
g5
((lp6405
g49
atRp6406
sg173
g5
((lp6407
g175
ag176
atRp6408
sg178
g5
((lp6409
g2170
atRp6410
sg701
g5
((lp6411
g506
atRp6412
sg186
g5
((lp6413
g189
ag191
ag2175
ag192
ag4434
atRp6414
sg194
g5
((lp6415
g196
atRp6416
sg914
g5
((lp6417
g916
atRp6418
sg198
g5
((lp6419
g200
atRp6420
sg202
g5
((lp6421
g204
atRp6422
sg210
g5
((lp6423
g212
atRp6424
sg214
g5
((lp6425
g217
atRp6426
sg219
g5
((lp6427
g221
ag222
ag223
ag225
ag226
ag227
ag228
atRp6428
sg230
g5
((lp6429
g232
ag233
ag234
atRp6430
sg237
g5
((lp6431
g223
atRp6432
sg240
g5
((lp6433
g242
atRp6434
sg244
g5
((lp6435
g246
atRp6436
sg248
g5
((lp6437
g250
ag251
atRp6438
sg253
g5
((lp6439
g256
ag257
ag258
atRp6440
sg260
g5
((lp6441
g4464
atRp6442
sg264
g5
((lp6443
g266
atRp6444
sg268
g5
((lp6445
g270
atRp6446
sg272
g5
((lp6447
g274
atRp6448
sg276
g5
((lp6449
g278
atRp6450
sg280
g5
((lp6451
g282
atRp6452
sg284
g5
((lp6453
g286
atRp6454
sg288
g5
((lp6455
g290
atRp6456
sg292
g5
((lp6457
g294
atRp6458
sg296
g5
((lp6459
g298
atRp6460
sg300
g5
((lp6461
g79
ag80
ag4391
ag82
ag83
ag84
ag86
ag87
ag88
ag89
ag91
ag92
ag93
ag4392
ag94
ag6373
ag95
ag96
ag97
ag99
ag98
ag81
ag102
ag103
ag101
atRp6462
sg303
g5
((lp6463
g305
atRp6464
sg307
g5
((lp6465
g309
atRp6466
sg315
g5
((lp6467
g317
atRp6468
sg319
g5
((lp6469
g321
atRp6470
sg323
g5
((lp6471
g325
atRp6472
sg327
g5
((lp6473
g329
atRp6474
sg331
g5
((lp6475
g333
atRp6476
sg339
g5
((lp6477
g341
atRp6478
sg343
g5
((lp6479
g341
atRp6480
sg346
g5
((lp6481
g348
atRp6482
sg350
g5
((lp6483
g352
atRp6484
sg354
g5
((lp6485
g356
atRp6486
sg362
g5
((lp6487
g2107
atRp6488
sg365
g5
((lp6489
g49
ag367
ag270
ag3336
ag369
atRp6490
sg371
g5
((lp6491
g75
ag4522
atRp6492
sg375
g5
((lp6493
g377
atRp6494
sg379
g5
((lp6495
g381
atRp6496
sg383
g5
((lp6497
g385
atRp6498
sg387
g5
((lp6499
g389
atRp6500
sg1776
g5
((lp6501
g341
atRp6502
sg394
g5
((lp6503
g396
atRp6504
sg398
g5
((lp6505
g400
atRp6506
sg402
g5
((lp6507
g112
atRp6508
sg405
g5
((lp6509
g407
ag408
atRp6510
sg410
g5
((lp6511
g407
ag408
atRp6512
sg391
g5
((lp6513
g112
atRp6514
sg417
g5
((lp6515
g112
atRp6516
sg420
g5
((lp6517
g422
atRp6518
sg427
g5
((lp6519
g429
ag430
ag431
ag432
atRp6520
sg434
g5
((lp6521
g436
ag437
atRp6522
sg439
g5
((lp6523
g441
ag442
atRp6524
sg444
g5
((lp6525
g446
atRp6526
sg448
g5
((lp6527
g450
atRp6528
sg457
g5
((lp6529
g459
atRp6530
sg461
g5
((lp6531
g463
atRp6532
sg927
g5
((lp6533
g266
atRp6534
sg468
g5
((lp6535
g266
atRp6536
sg471
g5
((lp6537
g473
ag474
atRp6538
sg476
g5
((lp6539
g478
atRp6540
sg480
g5
((lp6541
S'ACALD'
p6542
atRp6543
sg484
g5
((lp6544
g486
atRp6545
sg488
g5
((lp6546
g490
atRp6547
sg492
g5
((lp6548
g494
atRp6549
sg496
g5
((lp6550
g498
atRp6551
sg500
g5
((lp6552
g502
atRp6553
sg504
g5
((lp6554
g506
atRp6555
sg508
g5
((lp6556
g506
atRp6557
sg514
g5
((lp6558
g516
ag517
atRp6559
sg519
g5
((lp6560
g521
atRp6561
sg523
g5
((lp6562
g525
atRp6563
sg527
g5
((lp6564
g529
ag530
atRp6565
sg539
g5
((lp6566
g541
atRp6567
sg543
g5
((lp6568
g545
atRp6569
sg547
g5
((lp6570
g266
atRp6571
sg550
g5
((lp6572
g552
atRp6573
sg558
g5
((lp6574
g560
atRp6575
sg562
g5
((lp6576
g564
atRp6577
sg566
g5
((lp6578
g2349
atRp6579
sg573
g5
((lp6580
g575
ag576
ag578
ag552
ag579
ag580
ag541
ag333
ag581
ag577
atRp6581
sg2353
g5
((lp6582
g2355
atRp6583
sg584
g5
((lp6584
g367
ag3336
ag369
atRp6585
sg587
g5
((lp6586
g589
ag590
ag591
ag592
ag593
ag594
ag595
atRp6587
sg597
g5
((lp6588
g599
atRp6589
sg605
g5
((lp6590
g607
atRp6591
sg612
g5
((lp6592
g614
atRp6593
sg616
g5
((lp6594
g614
atRp6595
sg619
g5
((lp6596
g621
atRp6597
sg623
g5
((lp6598
g625
atRp6599
sg630
g5
((lp6600
S'EAR160x'
p6601
ag632
ag633
atRp6602
sg635
g5
((lp6603
g637
atRp6604
sg639
g5
((lp6605
g641
atRp6606
sg643
g5
((lp6607
g645
atRp6608
sg651
g5
((lp6609
g653
atRp6610
sg655
g5
((lp6611
g657
atRp6612
sg663
g5
((lp6613
g665
atRp6614
sg667
g5
((lp6615
g669
atRp6616
sg2390
g5
((lp6617
g2392
atRp6618
sg676
g5
((lp6619
g2395
ag381
atRp6620
sg679
g5
((lp6621
g681
ag4651
atRp6622
sg683
g5
((lp6623
g685
atRp6624
sg687
g5
((lp6625
g657
atRp6626
sg690
g5
((lp6627
g657
atRp6628
sg182
g5
((lp6629
g184
atRp6630
sg704
g5
((lp6631
g706
atRp6632
sg1438
g5
((lp6633
g1440
atRp6634
sg716
g5
((lp6635
g718
atRp6636
sg720
g5
((lp6637
g191
atRp6638
sg723
g5
((lp6639
g725
atRp6640
sg727
g5
((lp6641
g222
ag226
atRp6642
sg730
g5
((lp6643
g732
atRp6644
sg738
g5
((lp6645
g740
atRp6646
sg742
g5
((lp6647
g744
atRp6648
sg746
g5
((lp6649
g645
atRp6650
sg757
g5
((lp6651
g759
ag760
atRp6652
sg762
g5
((lp6653
g764
atRp6654
sg770
g5
((lp6655
g772
atRp6656
sg774
g5
((lp6657
g599
atRp6658
sg1760
g5
((lp6659
g1762
atRp6660
sg781
g5
((lp6661
g783
atRp6662
sg785
g5
((lp6663
g787
atRp6664
sg789
g5
((lp6665
g791
atRp6666
sg793
g5
((lp6667
g718
atRp6668
sg796
g5
((lp6669
g798
ag799
ag800
ag564
ag801
ag802
ag803
atRp6670
sg805
g5
((lp6671
g807
atRp6672
sg809
g5
((lp6673
g811
ag812
ag813
ag814
ag815
ag816
ag817
ag818
ag819
ag820
ag821
ag822
ag823
ag824
atRp6674
sg1386
g5
((lp6675
g1388
atRp6676
sg834
g5
((lp6677
g811
ag812
ag813
ag814
ag815
ag816
ag817
ag818
ag819
ag820
ag821
ag822
ag823
ag824
ag836
atRp6678
sg838
g5
((lp6679
g840
atRp6680
sg842
g5
((lp6681
g798
ag799
ag800
ag564
ag801
ag802
ag803
atRp6682
sg849
g5
((lp6683
g377
atRp6684
sg852
g5
((lp6685
g329
atRp6686
sg855
g5
((lp6687
g857
atRp6688
sg859
g5
((lp6689
g861
ag862
atRp6690
sg864
g5
((lp6691
g861
ag862
atRp6692
sg867
g5
((lp6693
g869
atRp6694
sg871
g5
((lp6695
g599
atRp6696
sg878
g5
((lp6697
g880
atRp6698
sg882
g5
((lp6699
g884
atRp6700
sg886
g5
((lp6701
g888
atRp6702
sg890
g5
((lp6703
g892
atRp6704
sg894
g5
((lp6705
g896
atRp6706
sg898
g5
((lp6707
g892
atRp6708
sg901
g5
((lp6709
g903
atRp6710
sg905
g5
((lp6711
g907
ag908
atRp6712
sg910
g5
((lp6713
g912
atRp6714
sg3244
g5
((lp6715
g3246
atRp6716
sg2497
g5
((lp6717
g2499
atRp6718
sg921
g5
((lp6719
g621
atRp6720
sg924
g5
((lp6721
g892
atRp6722
sg930
g5
((lp6723
g189
atRp6724
sg933
g5
((lp6725
g935
atRp6726
sg937
g5
((lp6727
g935
atRp6728
sg708
g5
((lp6729
g710
atRp6730
sg712
g5
((lp6731
g714
atRp6732
sg609
g5
((lp6733
g506
atRp6734
sg627
g5
((lp6735
g506
atRp6736
sg952
g5
((lp6737
g954
atRp6738
sg956
g5
((lp6739
g506
atRp6740
sg959
g5
((lp6741
g961
ag962
atRp6742
sg753
g5
((lp6743
g755
ag710
atRp6744
sg971
g5
((lp6745
g973
atRp6746
sg975
g5
((lp6747
g621
atRp6748
sg978
g5
((lp6749
g980
atRp6750
sg982
g5
((lp6751
g984
ag985
atRp6752
sg988
g5
((lp6753
g990
atRp6754
sg992
g5
((lp6755
g990
atRp6756
sg995
g5
((lp6757
g2499
ag990
atRp6758
sg998
g5
((lp6759
g1000
atRp6760
sg1002
g5
((lp6761
g1004
atRp6762
sg1006
g5
((lp6763
g54
atRp6764
sg1009
g5
((lp6765
g1011
atRp6766
sg1013
g5
((lp6767
g15
ag718
atRp6768
sg1017
g5
((lp6769
g1019
atRp6770
sg1021
g5
((lp6771
g1023
atRp6772
sg1411
g5
((lp6773
g454
ag455
atRp6774
sg1029
g5
((lp6775
g454
ag455
atRp6776
sg1032
g5
((lp6777
g454
ag455
atRp6778
sg1035
g5
((lp6779
g454
ag455
atRp6780
sg1427
g5
((lp6781
g454
ag455
atRp6782
sg1041
g5
((lp6783
g454
ag455
atRp6784
sg452
g5
((lp6785
g454
ag455
atRp6786
sg1442
g5
((lp6787
g502
atRp6788
sg1051
g5
((lp6789
g1053
atRp6790
sg1055
g5
((lp6791
g454
ag455
atRp6792
sg1058
g5
((lp6793
g892
ag1060
ag1061
ag1062
ag1063
ag1064
atRp6794
sg1066
g5
((lp6795
g1068
ag1069
atRp6796
sg1071
g5
((lp6797
g1073
atRp6798
sg1075
g5
((lp6799
g1077
atRp6800
sg1079
g5
((lp6801
g1073
atRp6802
sg1082
g5
((lp6803
g1084
ag1085
atRp6804
sg1087
g5
((lp6805
g1073
atRp6806
sg1090
g5
((lp6807
g1092
atRp6808
sg1094
g5
((lp6809
g1096
atRp6810
sg1098
g5
((lp6811
g1100
ag1101
atRp6812
sg1103
g5
((lp6813
g1062
ag1061
atRp6814
sg1106
g5
((lp6815
g1108
atRp6816
sg1110
g5
((lp6817
g1112
atRp6818
sg1117
g5
((lp6819
g740
atRp6820
sg1120
g5
((lp6821
g2175
ag192
ag4434
atRp6822
sg1123
g5
((lp6823
g2175
ag192
ag4434
atRp6824
sg1126
g5
((lp6825
g1128
atRp6826
sg1130
g5
((lp6827
g1132
atRp6828
sg1134
g5
((lp6829
g1128
atRp6830
sg1137
g5
((lp6831
g1139
atRp6832
sg1153
g5
((lp6833
g341
atRp6834
sg1156
g5
((lp6835
g1158
atRp6836
sS'b2436'
p6837
g5
((lp6838
S'CPPPGO'
p6839
atRp6840
sg1167
g5
((lp6841
g534
atRp6842
sg1173
g5
((lp6843
g657
atRp6844
sg1176
g5
((lp6845
g154
atRp6846
sg1179
g5
((lp6847
g552
atRp6848
sg1182
g5
((lp6849
g4876
atRp6850
sS'b3617'
p6851
g5
((lp6852
S'GLYAT_reverse'
p6853
atRp6854
sS'b3616'
p6855
g5
((lp6856
S'THRD'
p6857
atRp6858
sg1186
g5
((lp6859
g1188
atRp6860
sg1190
g5
((lp6861
g266
atRp6862
sg1193
g5
((lp6863
g1195
atRp6864
sg1197
g5
((lp6865
g1199
atRp6866
sg1201
g5
((lp6867
g599
atRp6868
sg1204
g5
((lp6869
g1206
atRp6870
sg1208
g5
((lp6871
g1206
atRp6872
sg1211
g5
((lp6873
g1213
atRp6874
sg1215
g5
((lp6875
g1206
atRp6876
sg2645
g5
((lp6877
g2499
atRp6878
sg1218
g5
((lp6879
g1220
atRp6880
sg1222
g5
((lp6881
g1206
atRp6882
sg1225
g5
((lp6883
g2653
atRp6884
sg1229
g5
((lp6885
g2653
atRp6886
sg1232
g5
((lp6887
g1234
atRp6888
sg1236
g5
((lp6889
g1238
atRp6890
sg1240
g5
((lp6891
g429
ag1242
ag431
atRp6892
sg1244
g5
((lp6893
g1246
ag4913
ag58
ag59
ag1247
ag60
ag2120
ag62
ag63
atRp6894
sg1249
g5
((lp6895
g1251
atRp6896
sg1253
g5
((lp6897
g1255
atRp6898
sg1257
g5
((lp6899
g1259
atRp6900
sg1261
g5
((lp6901
g1263
atRp6902
sg1265
g5
((lp6903
g984
ag985
atRp6904
sg1268
g5
((lp6905
g454
ag455
atRp6906
sg1271
g5
((lp6907
g454
ag455
atRp6908
sg1274
g5
((lp6909
g454
ag455
atRp6910
sg1277
g5
((lp6911
g454
ag455
atRp6912
sg1280
g5
((lp6913
g657
atRp6914
sg1283
g5
((lp6915
g973
atRp6916
sg1286
g5
((lp6917
g1288
atRp6918
sg1290
g5
((lp6919
g1292
atRp6920
sg1294
g5
((lp6921
g1296
atRp6922
sg1298
g5
((lp6923
g1300
atRp6924
sg1302
g5
((lp6925
g1304
ag1305
atRp6926
sg1307
g5
((lp6927
g1309
atRp6928
sg1311
g5
((lp6929
g1313
atRp6930
sg1315
g5
((lp6931
g1317
atRp6932
sg1319
g5
((lp6933
g116
atRp6934
sg1322
g5
((lp6935
g1324
atRp6936
sg1326
g5
((lp6937
g1328
atRp6938
sg1330
g5
((lp6939
g2732
atRp6940
sg1334
g5
((lp6941
g407
ag408
atRp6942
sg1337
g5
((lp6943
g1339
atRp6944
sg1341
g5
((lp6945
g1343
atRp6946
sg1345
g5
((lp6947
g2741
atRp6948
sg1349
g5
((lp6949
g1351
atRp6950
sg1353
g5
((lp6951
g552
atRp6952
sg1356
g5
((lp6953
g1358
ag1359
atRp6954
sg1361
g5
((lp6955
g1363
atRp6956
sg1365
g5
((lp6957
g1092
atRp6958
sg1368
g5
((lp6959
g407
ag408
atRp6960
sg1371
g5
((lp6961
g1373
atRp6962
sg1375
g5
((lp6963
g28
atRp6964
sg1378
g5
((lp6965
g1380
atRp6966
sg1382
g5
((lp6967
g1384
atRp6968
sg1576
g5
((lp6969
g1313
atRp6970
sg1394
g5
((lp6971
g266
atRp6972
sg1397
g5
((lp6973
g1358
ag1359
atRp6974
sg1400
g5
((lp6975
g1402
atRp6976
sg1404
g5
((lp6977
g1011
atRp6978
sg1407
g5
((lp6979
g1409
atRp6980
sg1025
g5
((lp6981
g1027
atRp6982
sg1414
g5
((lp6983
g1416
atRp6984
sg1421
g5
((lp6985
g669
atRp6986
sg1424
g5
((lp6987
g545
atRp6988
sg1038
g5
((lp6989
g502
atRp6990
sg1430
g5
((lp6991
g1432
atRp6992
sg1434
g5
((lp6993
g1436
atRp6994
sg1114
g5
((lp6995
g454
ag455
atRp6996
sg1445
g5
((lp6997
g1447
atRp6998
sg1449
g5
((lp6999
g196
atRp7000
sg1452
g5
((lp7001
g367
ag3336
atRp7002
sg1463
g5
((lp7003
g1465
atRp7004
sg2803
g5
((lp7005
g2355
atRp7006
sg1467
g5
((lp7007
g1469
atRp7008
sg2043
g5
((lp7009
g2045
atRp7010
sg1474
g5
((lp7011
g4876
atRp7012
sg1477
g5
((lp7013
g154
atRp7014
sg1480
g5
((lp7015
g954
atRp7016
sg1044
g5
((lp7017
g502
atRp7018
sg1483
g5
((lp7019
g892
atRp7020
sg1486
g5
((lp7021
g1488
ag1489
atRp7022
sg1491
g5
((lp7023
g1493
atRp7024
sg1495
g5
((lp7025
g1497
atRp7026
sg1499
g5
((lp7027
g1501
aS'OAADC'
p7028
atRp7029
sg1506
g5
((lp7030
g1508
atRp7031
sg1510
g5
((lp7032
g1512
atRp7033
sg1514
g5
((lp7034
g1073
atRp7035
sg1517
g5
((lp7036
g1519
atRp7037
sg1521
g5
((lp7038
g221
atRp7039
sg1524
g5
((lp7040
g1296
atRp7041
sg1527
g5
((lp7042
g1529
atRp7043
sg1531
g5
((lp7044
g1533
atRp7045
sg1535
g5
((lp7046
g1537
atRp7047
sg1539
g5
((lp7048
g1541
ag1542
atRp7049
sg647
g5
((lp7050
g649
atRp7051
sg1548
g5
((lp7052
g649
atRp7053
sg1572
g5
((lp7054
g1574
atRp7055
sg1390
g5
((lp7056
g1392
atRp7057
sg826
g5
((lp7058
g828
atRp7059
sg2858
g5
((lp7060
g2355
atRp7061
sg1583
g5
((lp7062
g1585
atRp7063
sg1587
g5
((lp7064
g1589
ag1139
ag1590
atRp7065
sg1592
g5
((lp7066
g907
ag908
atRp7067
sg1595
g5
((lp7068
g1597
ag1598
atRp7069
sg1600
g5
((lp7070
g1597
ag1602
ag1060
ag1061
ag1598
ag1062
atRp7071
sg1608
g5
((lp7072
g1195
atRp7073
sg1611
g5
((lp7074
g204
atRp7075
sg1614
g5
((lp7076
g1288
atRp7077
sg2879
g5
((lp7078
g5088
atRp7079
sg1617
g5
((lp7080
g225
ag227
ag228
atRp7081
sg967
g5
((lp7082
g969
atRp7083
sg2889
g5
((lp7084
S'ACt4pp'
p7085
atRp7086
sg1627
g5
((lp7087
g1343
atRp7088
sg1630
g5
((lp7089
g429
ag1242
ag1632
atRp7090
sg1634
g5
((lp7091
g79
ag80
ag4391
ag82
ag83
ag84
ag86
ag87
ag88
ag89
ag91
ag92
ag93
ag4392
ag94
ag6373
ag95
ag96
ag97
ag99
ag98
ag81
ag102
ag103
ag101
atRp7092
sg1637
g5
((lp7093
g912
atRp7094
sg1640
g5
((lp7095
g1642
atRp7096
sg1644
g5
((lp7097
g1646
atRp7098
sg2905
g5
((lp7099
g5088
atRp7100
sg1648
g5
((lp7101
g116
atRp7102
sg1651
g5
((lp7103
g79
ag80
ag4391
ag82
ag83
ag84
ag86
ag87
ag88
ag89
ag91
ag92
ag93
ag4392
ag94
ag6373
ag95
ag96
ag97
ag99
ag98
ag81
ag102
ag103
ag101
atRp7104
sg1654
g5
((lp7105
g158
ag1656
atRp7106
sg1658
g5
((lp7107
g1660
atRp7108
sg1662
g5
((lp7109
g196
atRp7110
sg1665
g5
((lp7111
g2741
atRp7112
sg1672
g5
((lp7113
g2741
atRp7114
sg1675
g5
((lp7115
g196
atRp7116
sg1678
g5
((lp7117
g725
atRp7118
sg1684
g5
((lp7119
g1686
ag1687
atRp7120
sg1689
g5
((lp7121
g1691
atRp7122
sg1544
g5
((lp7123
g1546
atRp7124
sg1847
g5
((lp7125
g1546
atRp7126
sg1705
g5
((lp7127
g1063
ag1707
atRp7128
sg1709
g5
((lp7129
g1707
atRp7130
sg1712
g5
((lp7131
g6542
atRp7132
sg1719
g5
((lp7133
g1721
atRp7134
sg1723
g5
((lp7135
g599
atRp7136
sg1726
g5
((lp7137
g1728
atRp7138
sg1730
g5
((lp7139
g1732
ag1733
atRp7140
sg1735
g5
((lp7141
g1542
atRp7142
sg1738
g5
((lp7143
g1740
atRp7144
sg1746
g5
((lp7145
g1748
atRp7146
sg1750
g5
((lp7147
g1752
ag1753
ag1754
ag530
ag1755
atRp7148
sg206
g5
((lp7149
g208
atRp7150
sg1764
g5
((lp7151
g1766
atRp7152
sg1768
g5
((lp7153
g1770
atRp7154
sg1772
g5
((lp7155
g1774
atRp7156
sg532
g5
((lp7157
g534
atRp7158
sg1779
g5
((lp7159
g1781
atRp7160
sg601
g5
((lp7161
g603
atRp7162
sg1810
g5
((lp7163
g15
ag718
atRp7164
sg1813
g5
((lp7165
g1815
atRp7166
sg1817
g5
((lp7167
g4437
atRp7168
sg1821
g5
((lp7169
g1823
atRp7170
sg671
g5
((lp7171
g673
ag674
atRp7172
sg1829
g5
((lp7173
g1831
atRp7174
sg1833
g5
((lp7175
g27
ag28
atRp7176
sg1836
g5
((lp7177
g1838
atRp7178
sg1840
g5
((lp7179
g1842
atRp7180
sg1844
g5
((lp7181
g1838
atRp7182
sg766
g5
((lp7183
g768
atRp7184
sg1850
g5
((lp7185
g189
ag191
ag2175
ag192
ag4434
atRp7186
sg1853
g5
((lp7187
g607
atRp7188
sg1859
g5
((lp7189
g1861
atRp7190
sg1866
g5
((lp7191
g2107
atRp7192
sg1872
g5
((lp7193
g764
atRp7194
sg1875
g5
((lp7195
g1877
atRp7196
sg1879
g5
((lp7197
g1881
ag1882
ag1883
atRp7198
sg1888
g5
((lp7199
g1890
ag459
atRp7200
sg1892
g5
((lp7201
g525
atRp7202
sg1895
g5
((lp7203
g1897
atRp7204
sg1899
g5
((lp7205
g15
atRp7206
sg1902
g5
((lp7207
g1904
atRp7208
sg1906
g5
((lp7209
g1199
atRp7210
sg1913
g5
((lp7211
g1915
ag463
ag1916
atRp7212
sg1918
g5
((lp7213
g49
ag367
ag270
ag3336
ag369
atRp7214
sg1921
g5
((lp7215
g1923
ag1924
atRp7216
sg1926
g5
((lp7217
g1928
atRp7218
sg1930
g5
((lp7219
g861
ag862
atRp7220
sg1933
g5
((lp7221
g1928
atRp7222
sg1936
g5
((lp7223
g1938
ag1939
atRp7224
sg1941
g5
((lp7225
g1943
atRp7226
sg1945
g5
((lp7227
g1947
atRp7228
sg1949
g5
((lp7229
g1951
atRp7230
sg1953
g5
((lp7231
g1955
atRp7232
sg1960
g5
((lp7233
g1838
atRp7234
sg1963
g5
((lp7235
g980
atRp7236
sg1966
g5
((lp7237
g1968
atRp7238
sg1970
g5
((lp7239
g980
atRp7240
sg1973
g5
((lp7241
g1838
atRp7242
sg1976
g5
((lp7243
g1838
atRp7244
sg1982
g5
((lp7245
g1238
atRp7246
sg1909
g5
((lp7247
g1911
atRp7248
sg1988
g5
((lp7249
g599
atRp7250
sg1991
g5
((lp7251
g1993
atRp7252
sg1995
g5
((lp7253
g1823
atRp7254
sg1998
g5
((lp7255
g2000
atRp7256
sg2002
g5
((lp7257
g2004
ag2005
atRp7258
sg2007
g5
((lp7259
g2009
atRp7260
sg2011
g5
((lp7261
g1740
atRp7262
sg2014
g5
((lp7263
g506
atRp7264
sg2017
g5
((lp7265
g2019
ag1195
atRp7266
sg2021
g5
((lp7267
g506
atRp7268
sg2024
g5
((lp7269
g2026
atRp7270
sg2028
g5
((lp7271
g1842
atRp7272
sg2035
g5
((lp7273
g2037
atRp7274
sg2039
g5
((lp7275
g2041
atRp7276
sg1742
g5
((lp7277
g1744
atRp7278
sg2047
g5
((lp7279
g2049
atRp7280
sg2051
g5
((lp7281
g2053
ag2054
atRp7282
sg2056
g5
((lp7283
g2058
atRp7284
sg2060
g5
((lp7285
g4876
atRp7286
sg2066
g5
((lp7287
g1255
atRp7288
sg2069
g5
((lp7289
g367
ag3336
atRp7290
sg2072
g5
((lp7291
g2074
atRp7292
sg2076
g5
((lp7293
g2078
atRp7294
sg2080
g5
((lp7295
g2082
ag217
atRp7296
sg2084
g5
((lp7297
g2086
atRp7298
sg2088
g5
((lp7299
g400
atRp7300
sg2091
g5
((lp7301
g2093
atRp7302
ssS'GLC_BATCH_mu=0.58_S'
p7303
(dp7304
g4
g5
((lp7305
S'GLYt4pp'
p7306
atRp7307
sg13
g5
((lp7308
g15
atRp7309
sg17
g5
((lp7310
g19
atRp7311
sg21
g5
((lp7312
g23
atRp7313
sg25
g5
((lp7314
g27
ag28
atRp7315
sg30
g5
((lp7316
g32
ag2106
atRp7317
sg34
g5
((lp7318
g36
ag37
atRp7319
sg39
g5
((lp7320
g41
atRp7321
sg43
g5
((lp7322
g45
atRp7323
sg47
g5
((lp7324
g49
atRp7325
sg51
g5
((lp7326
g53
ag54
atRp7327
sg56
g5
((lp7328
g58
ag59
ag60
ag2120
ag62
atRp7329
sg65
g5
((lp7330
g67
atRp7331
sg69
g5
((lp7332
g71
atRp7333
sg73
g5
((lp7334
g75
atRp7335
sg77
g5
((lp7336
g79
ag80
ag95
ag82
ag83
ag84
ag85
ag86
ag87
ag88
ag89
ag91
ag92
ag104
ag93
ag94
ag81
ag96
ag97
aS'GLCtex'
p7337
ag99
ag98
ag101
ag102
ag103
ag4394
atRp7338
sg106
g5
((lp7339
g2133
atRp7340
sg110
g5
((lp7341
g112
atRp7342
sg114
g5
((lp7343
g116
atRp7344
sg118
g5
((lp7345
g120
atRp7346
sg122
g5
((lp7347
g124
atRp7348
sg126
g5
((lp7349
g128
ag129
atRp7350
sg131
g5
((lp7351
g112
atRp7352
sg134
g5
((lp7353
g112
atRp7354
sg137
g5
((lp7355
g112
atRp7356
sg145
g5
((lp7357
g112
atRp7358
sg148
g5
((lp7359
S'3HAD121'
p7360
aS'3HAD141'
p7361
aS'T2DECAI'
p7362
atRp7363
sg152
g5
((lp7364
g154
atRp7365
sg156
g5
((lp7366
g158
ag159
atRp7367
sg161
g5
((lp7368
g163
ag164
atRp7369
sg166
g5
((lp7370
g163
ag164
atRp7371
sg169
g5
((lp7372
g171
atRp7373
sg173
g5
((lp7374
g175
ag176
atRp7375
sg178
g5
((lp7376
g2170
ag180
atRp7377
sg701
g5
((lp7378
g506
atRp7379
sg186
g5
((lp7380
g189
ag191
ag2175
ag192
ag4434
atRp7381
sg194
g5
((lp7382
g196
atRp7383
sg198
g5
((lp7384
g200
atRp7385
sg202
g5
((lp7386
g3255
atRp7387
sg206
g5
((lp7388
g208
atRp7389
sg210
g5
((lp7390
g212
atRp7391
sg214
g5
((lp7392
g217
atRp7393
sg219
g5
((lp7394
g221
ag222
ag223
aS'AACPS8'
p7395
ag225
ag226
ag227
ag228
atRp7396
sg230
g5
((lp7397
S'3OAR121'
p7398
ag232
aS'3OAR141'
p7399
ag233
ag234
atRp7400
sg237
g5
((lp7401
g223
atRp7402
sg240
g5
((lp7403
g242
atRp7404
sg244
g5
((lp7405
g246
atRp7406
sg248
g5
((lp7407
g250
ag251
atRp7408
sg253
g5
((lp7409
S'FACOAE100'
p7410
ag256
ag257
ag258
atRp7411
sg260
g5
((lp7412
g262
atRp7413
sg264
g5
((lp7414
g266
atRp7415
sg268
g5
((lp7416
g270
atRp7417
sg272
g5
((lp7418
g274
atRp7419
sg276
g5
((lp7420
g278
atRp7421
sg280
g5
((lp7422
g282
atRp7423
sg284
g5
((lp7424
g286
atRp7425
sg288
g5
((lp7426
g290
atRp7427
sg292
g5
((lp7428
g294
atRp7429
sg296
g5
((lp7430
g298
atRp7431
sg300
g5
((lp7432
g79
ag80
ag95
ag82
ag83
ag84
ag85
ag86
ag87
ag88
ag89
ag91
ag92
ag104
ag93
ag94
ag81
ag96
ag97
ag7337
ag99
ag98
ag101
ag102
ag103
ag4394
atRp7433
sg303
g5
((lp7434
g305
atRp7435
sg307
g5
((lp7436
g309
atRp7437
sg315
g5
((lp7438
g317
atRp7439
sg319
g5
((lp7440
g321
atRp7441
sg323
g5
((lp7442
g325
atRp7443
sg327
g5
((lp7444
g329
atRp7445
sg331
g5
((lp7446
g333
atRp7447
sg335
g5
((lp7448
g337
atRp7449
sS'b2388'
p7450
g5
((lp7451
S'HEX1'
p7452
atRp7453
sg339
g5
((lp7454
g341
atRp7455
sg343
g5
((lp7456
g341
atRp7457
sg346
g5
((lp7458
g348
atRp7459
sg350
g5
((lp7460
g352
atRp7461
sg354
g5
((lp7462
g356
atRp7463
sg358
g5
((lp7464
g360
atRp7465
sg362
g5
((lp7466
g32
atRp7467
sg365
g5
((lp7468
g3336
ag367
ag369
ag49
ag270
aS'RNTR2c2'
p7469
atRp7470
sg371
g5
((lp7471
g75
ag373
atRp7472
sg375
g5
((lp7473
g377
atRp7474
sg379
g5
((lp7475
g381
atRp7476
sg383
g5
((lp7477
g385
atRp7478
sg387
g5
((lp7479
g389
atRp7480
sg1776
g5
((lp7481
g341
atRp7482
sg394
g5
((lp7483
g396
atRp7484
sg398
g5
((lp7485
g400
atRp7486
sg402
g5
((lp7487
g112
atRp7488
sg405
g5
((lp7489
g407
ag408
atRp7490
sg410
g5
((lp7491
g407
ag408
atRp7492
sg391
g5
((lp7493
g112
atRp7494
sg417
g5
((lp7495
g112
atRp7496
sg420
g5
((lp7497
g422
atRp7498
sg427
g5
((lp7499
g429
ag430
ag431
ag432
atRp7500
sg434
g5
((lp7501
g436
ag437
atRp7502
sg439
g5
((lp7503
g441
ag442
atRp7504
sg444
g5
((lp7505
g446
atRp7506
sg448
g5
((lp7507
g450
atRp7508
sg457
g5
((lp7509
g459
atRp7510
sg461
g5
((lp7511
g463
atRp7512
sg465
g5
((lp7513
g360
atRp7514
sg468
g5
((lp7515
g266
atRp7516
sg471
g5
((lp7517
g473
ag474
atRp7518
sg476
g5
((lp7519
g478
atRp7520
sg480
g5
((lp7521
g482
atRp7522
sg484
g5
((lp7523
g486
atRp7524
sg488
g5
((lp7525
g490
atRp7526
sg492
g5
((lp7527
g494
atRp7528
sg496
g5
((lp7529
g498
atRp7530
sg500
g5
((lp7531
g502
atRp7532
sg504
g5
((lp7533
g506
atRp7534
sg508
g5
((lp7535
g506
atRp7536
sg514
g5
((lp7537
g516
ag517
atRp7538
sg519
g5
((lp7539
g521
atRp7540
sg523
g5
((lp7541
g525
atRp7542
sg527
g5
((lp7543
g529
ag530
atRp7544
sg536
g5
((lp7545
g112
atRp7546
sg539
g5
((lp7547
g541
atRp7548
sg543
g5
((lp7549
g545
atRp7550
sg547
g5
((lp7551
g266
atRp7552
sg550
g5
((lp7553
g552
atRp7554
sg558
g5
((lp7555
g560
atRp7556
sg562
g5
((lp7557
g564
atRp7558
sg566
g5
((lp7559
g4610
ag337
atRp7560
sg573
g5
((lp7561
g575
ag576
ag577
ag578
ag552
ag579
ag580
ag541
ag333
ag581
ag582
atRp7562
sg584
g5
((lp7563
g367
ag7469
ag3336
ag369
atRp7564
sg587
g5
((lp7565
g589
ag590
ag591
ag592
ag593
ag594
ag595
atRp7566
sg597
g5
((lp7567
g599
atRp7568
sg601
g5
((lp7569
g603
atRp7570
sg605
g5
((lp7571
g607
atRp7572
sg612
g5
((lp7573
g614
atRp7574
sg616
g5
((lp7575
g614
atRp7576
sg619
g5
((lp7577
g621
atRp7578
sg623
g5
((lp7579
g625
atRp7580
sg630
g5
((lp7581
S'EAR121x'
p7582
ag632
ag633
atRp7583
sg809
g5
((lp7584
g811
ag812
ag813
ag814
ag815
ag816
ag817
ag818
ag819
ag820
ag821
ag822
ag823
ag824
atRp7585
sg635
g5
((lp7586
g637
atRp7587
sg639
g5
((lp7588
g2378
atRp7589
sg643
g5
((lp7590
g645
atRp7591
sg651
g5
((lp7592
g653
atRp7593
sg655
g5
((lp7594
g657
atRp7595
sg659
g5
((lp7596
g661
atRp7597
sg663
g5
((lp7598
g665
atRp7599
sg667
g5
((lp7600
g669
atRp7601
sg2390
g5
((lp7602
g2392
atRp7603
sg676
g5
((lp7604
g2395
ag381
atRp7605
sg679
g5
((lp7606
g2398
ag2399
ag681
ag4650
atRp7607
sg683
g5
((lp7608
g685
atRp7609
sg687
g5
((lp7610
g657
atRp7611
sg690
g5
((lp7612
g657
atRp7613
sg182
g5
((lp7614
g184
atRp7615
sg704
g5
((lp7616
g706
atRp7617
sg1438
g5
((lp7618
g1440
atRp7619
sg716
g5
((lp7620
g718
atRp7621
sg720
g5
((lp7622
g191
atRp7623
sg723
g5
((lp7624
g725
atRp7625
sg727
g5
((lp7626
g222
ag226
atRp7627
sg730
g5
((lp7628
g732
atRp7629
sg734
g5
((lp7630
g736
atRp7631
sg738
g5
((lp7632
g740
atRp7633
sg742
g5
((lp7634
g744
atRp7635
sg746
g5
((lp7636
g645
atRp7637
sg757
g5
((lp7638
g759
ag760
atRp7639
sg762
g5
((lp7640
g764
atRp7641
sg770
g5
((lp7642
g772
atRp7643
sg774
g5
((lp7644
g599
atRp7645
sg777
g5
((lp7646
g779
atRp7647
sg781
g5
((lp7648
g783
atRp7649
sg785
g5
((lp7650
g787
atRp7651
sg789
g5
((lp7652
g791
atRp7653
sg793
g5
((lp7654
g718
atRp7655
sg796
g5
((lp7656
g798
ag799
ag800
ag564
ag801
ag802
ag803
atRp7657
sg805
g5
((lp7658
g807
atRp7659
sS'b0945'
p7660
g5
((lp7661
S'DHORD2'
p7662
atRp7663
sg1386
g5
((lp7664
g1388
atRp7665
sg830
g5
((lp7666
g832
atRp7667
sg834
g5
((lp7668
g811
ag812
ag813
ag814
ag815
ag816
ag817
ag818
ag819
ag820
ag821
ag822
ag823
ag824
ag836
atRp7669
sg838
g5
((lp7670
g840
atRp7671
sg842
g5
((lp7672
g798
ag799
ag800
ag564
ag801
ag802
ag803
atRp7673
sg845
g5
((lp7674
g847
atRp7675
sg849
g5
((lp7676
g377
atRp7677
sg852
g5
((lp7678
g329
atRp7679
sg855
g5
((lp7680
g857
atRp7681
sg859
g5
((lp7682
g861
ag862
atRp7683
sg864
g5
((lp7684
g861
ag862
atRp7685
sg867
g5
((lp7686
g869
atRp7687
sg871
g5
((lp7688
g599
atRp7689
sg874
g5
((lp7690
g876
atRp7691
sg878
g5
((lp7692
g880
atRp7693
sg882
g5
((lp7694
g884
atRp7695
sg886
g5
((lp7696
g888
atRp7697
sg890
g5
((lp7698
g892
atRp7699
sg894
g5
((lp7700
g896
atRp7701
sg898
g5
((lp7702
g892
atRp7703
sg901
g5
((lp7704
g903
atRp7705
sg905
g5
((lp7706
g907
ag908
atRp7707
sg910
g5
((lp7708
g912
atRp7709
sg914
g5
((lp7710
g916
atRp7711
sg921
g5
((lp7712
g621
atRp7713
sg924
g5
((lp7714
g892
atRp7715
sg930
g5
((lp7716
g189
atRp7717
sg933
g5
((lp7718
g935
atRp7719
sg937
g5
((lp7720
g935
atRp7721
sg708
g5
((lp7722
g710
atRp7723
sg712
g5
((lp7724
g714
atRp7725
sg609
g5
((lp7726
g506
atRp7727
sg627
g5
((lp7728
g506
atRp7729
sg952
g5
((lp7730
g954
atRp7731
sg956
g5
((lp7732
g506
atRp7733
sg959
g5
((lp7734
g961
ag962
atRp7735
sg753
g5
((lp7736
g755
ag710
atRp7737
sg971
g5
((lp7738
g973
atRp7739
sg975
g5
((lp7740
g621
atRp7741
sg978
g5
((lp7742
g980
atRp7743
sg982
g5
((lp7744
g984
ag985
ag986
atRp7745
sg988
g5
((lp7746
g990
atRp7747
sg992
g5
((lp7748
g990
atRp7749
sg995
g5
((lp7750
g990
atRp7751
sg998
g5
((lp7752
g1000
atRp7753
sg1002
g5
((lp7754
g1004
atRp7755
sg1006
g5
((lp7756
g54
atRp7757
sg1009
g5
((lp7758
g1011
atRp7759
sg1013
g5
((lp7760
g15
ag718
atRp7761
sg1021
g5
((lp7762
g1023
atRp7763
sg1411
g5
((lp7764
g454
atRp7765
sg1029
g5
((lp7766
g454
atRp7767
sg1032
g5
((lp7768
g454
atRp7769
sg1035
g5
((lp7770
g454
atRp7771
sg1427
g5
((lp7772
g454
atRp7773
sg1041
g5
((lp7774
g454
atRp7775
sg452
g5
((lp7776
g454
atRp7777
sg1047
g5
((lp7778
S'GLCt2pp'
p7779
atRp7780
sg1051
g5
((lp7781
g1053
atRp7782
sg1055
g5
((lp7783
g454
atRp7784
sg1058
g5
((lp7785
g892
ag1060
ag1061
ag1062
ag1063
ag1064
atRp7786
sg1066
g5
((lp7787
g1068
ag1069
atRp7788
sg1075
g5
((lp7789
g1077
atRp7790
sg1506
g5
((lp7791
g1508
atRp7792
sg1082
g5
((lp7793
g1084
ag7360
ag7361
ag1085
atRp7794
sg1521
g5
((lp7795
g221
atRp7796
sg1090
g5
((lp7797
g1092
atRp7798
sg1137
g5
((lp7799
g1139
atRp7800
sg1098
g5
((lp7801
g1100
ag1101
atRp7802
sg1103
g5
((lp7803
g1062
ag1061
atRp7804
sg1106
g5
((lp7805
g1108
atRp7806
sg1110
g5
((lp7807
g1112
atRp7808
sg1114
g5
((lp7809
g454
atRp7810
sg1117
g5
((lp7811
g740
atRp7812
sg1120
g5
((lp7813
g2175
ag192
ag4434
atRp7814
sg1123
g5
((lp7815
g2175
ag192
ag4434
atRp7816
sg1126
g5
((lp7817
g1128
atRp7818
sg1130
g5
((lp7819
g1132
atRp7820
sg1134
g5
((lp7821
g1128
atRp7822
sg1141
g5
((lp7823
g1143
atRp7824
sg1145
g5
((lp7825
g1147
atRp7826
sg1149
g5
((lp7827
g1151
atRp7828
sg1153
g5
((lp7829
g341
atRp7830
sg1156
g5
((lp7831
g1158
atRp7832
sg1163
g5
((lp7833
g1165
atRp7834
sg1167
g5
((lp7835
g534
atRp7836
sg1434
g5
((lp7837
g1436
atRp7838
sg1170
g5
((lp7839
g847
atRp7840
sg1173
g5
((lp7841
g657
atRp7842
sg1176
g5
((lp7843
g154
atRp7844
sg1179
g5
((lp7845
g552
atRp7846
sg1182
g5
((lp7847
g1184
atRp7848
sg1186
g5
((lp7849
g1188
atRp7850
sg1190
g5
((lp7851
g266
atRp7852
sg1193
g5
((lp7853
g3825
atRp7854
sg1197
g5
((lp7855
g1199
atRp7856
sg1201
g5
((lp7857
g599
atRp7858
sg1204
g5
((lp7859
g1206
atRp7860
sg1208
g5
((lp7861
g1206
atRp7862
sg1211
g5
((lp7863
g1213
atRp7864
sg1215
g5
((lp7865
g1206
atRp7866
sg1218
g5
((lp7867
g1220
atRp7868
sg1222
g5
((lp7869
g1206
atRp7870
sg1225
g5
((lp7871
g1227
atRp7872
sg1229
g5
((lp7873
g1227
atRp7874
sg2657
g5
((lp7875
g2659
atRp7876
sg1232
g5
((lp7877
g1234
atRp7878
sg1236
g5
((lp7879
g1238
atRp7880
sg1240
g5
((lp7881
g429
ag1242
ag431
atRp7882
sg2667
g5
((lp7883
g2669
atRp7884
sg1244
g5
((lp7885
g1246
ag4913
ag58
ag59
ag1247
ag60
ag2120
ag62
atRp7886
sg1249
g5
((lp7887
g1251
atRp7888
sg1253
g5
((lp7889
g1255
atRp7890
sg1257
g5
((lp7891
g1259
atRp7892
sg1261
g5
((lp7893
g1263
atRp7894
sg1265
g5
((lp7895
g984
ag985
atRp7896
sg1268
g5
((lp7897
g454
atRp7898
sg1271
g5
((lp7899
g454
atRp7900
sg1274
g5
((lp7901
g454
atRp7902
sg1277
g5
((lp7903
g454
atRp7904
sg1280
g5
((lp7905
g657
atRp7906
sg1283
g5
((lp7907
g973
atRp7908
sg1286
g5
((lp7909
g1288
atRp7910
sg1290
g5
((lp7911
g1292
atRp7912
sg1294
g5
((lp7913
g1296
atRp7914
sg1298
g5
((lp7915
g1300
atRp7916
sg1302
g5
((lp7917
g1304
ag1305
atRp7918
sg1307
g5
((lp7919
g1309
atRp7920
sg1311
g5
((lp7921
g1313
atRp7922
sg1315
g5
((lp7923
g1317
atRp7924
sg1319
g5
((lp7925
g116
atRp7926
sg1322
g5
((lp7927
g1324
atRp7928
sg2726
g5
((lp7929
g2398
ag2399
ag4650
atRp7930
sg1326
g5
((lp7931
g1328
atRp7932
sg1330
g5
((lp7933
g1332
atRp7934
sg1334
g5
((lp7935
g407
ag408
atRp7936
sg1337
g5
((lp7937
g1339
atRp7938
sg1341
g5
((lp7939
g1343
atRp7940
sg1345
g5
((lp7941
g1347
atRp7942
sg1349
g5
((lp7943
g1351
atRp7944
sg1353
g5
((lp7945
g552
atRp7946
sg1356
g5
((lp7947
g1358
ag1359
atRp7948
sg1361
g5
((lp7949
g1363
atRp7950
sg1365
g5
((lp7951
g1092
atRp7952
sg1368
g5
((lp7953
g407
ag408
atRp7954
sg1371
g5
((lp7955
g1373
atRp7956
sg1375
g5
((lp7957
g28
atRp7958
sg1378
g5
((lp7959
g1380
atRp7960
sg1382
g5
((lp7961
g1384
atRp7962
sg1390
g5
((lp7963
S'ASPO3'
p7964
atRp7965
sg1394
g5
((lp7966
g266
atRp7967
sg1397
g5
((lp7968
g1358
ag1359
atRp7969
sg1400
g5
((lp7970
g1402
atRp7971
sg1404
g5
((lp7972
g1011
atRp7973
sg1407
g5
((lp7974
g1409
atRp7975
sg1025
g5
((lp7976
g1027
atRp7977
sg1414
g5
((lp7978
g1416
atRp7979
sg1421
g5
((lp7980
g669
atRp7981
sg1424
g5
((lp7982
g545
atRp7983
sg1038
g5
((lp7984
g502
atRp7985
sg1430
g5
((lp7986
g1432
atRp7987
sg1044
g5
((lp7988
g502
atRp7989
sg1442
g5
((lp7990
g502
atRp7991
sg1445
g5
((lp7992
g1447
atRp7993
sg1449
g5
((lp7994
g196
atRp7995
sg1452
g5
((lp7996
g367
ag7469
ag3336
atRp7997
sg1463
g5
((lp7998
g1465
atRp7999
sg1467
g5
((lp8000
g1469
atRp8001
sg2043
g5
((lp8002
g2045
atRp8003
sg1474
g5
((lp8004
g1184
atRp8005
sg1477
g5
((lp8006
g154
atRp8007
sg1483
g5
((lp8008
g892
atRp8009
sg1486
g5
((lp8010
g1488
ag1489
atRp8011
sg1491
g5
((lp8012
g1493
atRp8013
sg1495
g5
((lp8014
g1497
atRp8015
sg1499
g5
((lp8016
g1501
atRp8017
sg1503
g5
((lp8018
g313
atRp8019
sg311
g5
((lp8020
g313
atRp8021
sg1510
g5
((lp8022
g1512
atRp8023
sg1517
g5
((lp8024
g1519
atRp8025
sg1524
g5
((lp8026
g1296
atRp8027
sg1527
g5
((lp8028
g1529
atRp8029
sg1531
g5
((lp8030
g1533
atRp8031
sg1535
g5
((lp8032
g1537
atRp8033
sg1539
g5
((lp8034
g1541
ag1542
atRp8035
sg647
g5
((lp8036
g649
atRp8037
sg1548
g5
((lp8038
g649
atRp8039
sg1555
g5
((lp8040
g1557
atRp8041
sg1572
g5
((lp8042
g1574
atRp8043
sg1576
g5
((lp8044
g1313
atRp8045
sg826
g5
((lp8046
g828
atRp8047
sg1583
g5
((lp8048
g1585
atRp8049
sg1587
g5
((lp8050
g1589
ag1139
ag1590
atRp8051
sg1592
g5
((lp8052
g907
ag908
atRp8053
sg1595
g5
((lp8054
g1597
ag1598
atRp8055
sg1600
g5
((lp8056
g1597
ag1602
ag1060
ag1061
ag1598
ag1062
atRp8057
sg1604
g5
((lp8058
g1606
atRp8059
sg1608
g5
((lp8060
g3825
atRp8061
sg1611
g5
((lp8062
g3255
atRp8063
sg1614
g5
((lp8064
g1288
atRp8065
sg2879
g5
((lp8066
g5088
ag2881
atRp8067
sg1617
g5
((lp8068
g225
ag227
ag7395
ag228
atRp8069
sg1620
g5
((lp8070
g1606
atRp8071
sg967
g5
((lp8072
g969
atRp8073
sg1627
g5
((lp8074
g1343
atRp8075
sg1630
g5
((lp8076
g429
ag1242
ag1632
atRp8077
sg1634
g5
((lp8078
g79
ag80
ag95
ag82
ag83
ag84
ag85
ag86
ag87
ag88
ag89
ag91
ag92
ag104
ag93
ag94
ag81
ag96
ag97
ag7337
ag99
ag98
ag101
ag102
ag103
ag4394
atRp8079
sg1637
g5
((lp8080
g912
atRp8081
sg1640
g5
((lp8082
g1642
atRp8083
sg1644
g5
((lp8084
g1646
atRp8085
sg2905
g5
((lp8086
g5088
ag2881
atRp8087
sg1648
g5
((lp8088
g116
atRp8089
sg1651
g5
((lp8090
g79
ag80
ag95
ag82
ag83
ag84
ag85
ag86
ag87
ag88
ag89
ag91
ag92
ag104
ag93
ag94
ag81
ag96
ag97
ag7337
ag99
ag98
ag101
ag102
ag103
ag4394
atRp8091
sg1654
g5
((lp8092
g158
ag1656
atRp8093
sg1658
g5
((lp8094
g1660
atRp8095
sg1662
g5
((lp8096
g196
atRp8097
sg1665
g5
((lp8098
g1347
atRp8099
sg1668
g5
((lp8100
S'XYLI2_reverse'
p8101
atRp8102
sg1672
g5
((lp8103
g1347
atRp8104
sg4096
g5
((lp8105
S'GLCptspp'
p8106
atRp8107
sg1675
g5
((lp8108
g196
atRp8109
sg1678
g5
((lp8110
g725
atRp8111
sg4110
g5
((lp8112
g8106
atRp8113
sg4113
g5
((lp8114
g8106
atRp8115
sg1684
g5
((lp8116
g1686
ag1687
atRp8117
sg1689
g5
((lp8118
g1691
atRp8119
sg1807
g5
((lp8120
g2931
atRp8121
sg1544
g5
((lp8122
g1546
atRp8123
sg1847
g5
((lp8124
g1546
atRp8125
sg1705
g5
((lp8126
g1063
ag1707
atRp8127
sg1709
g5
((lp8128
g1707
atRp8129
sg1712
g5
((lp8130
g360
ag482
atRp8131
sg1715
g5
((lp8132
g1717
atRp8133
sg1719
g5
((lp8134
g1721
atRp8135
sg1723
g5
((lp8136
g599
atRp8137
sg1726
g5
((lp8138
g1728
atRp8139
sg1730
g5
((lp8140
g1732
ag1733
atRp8141
sg1735
g5
((lp8142
g1542
atRp8143
sS'b1621'
p8144
g5
((lp8145
g8106
atRp8146
sg1738
g5
((lp8147
g1740
atRp8148
sg5159
g5
((lp8149
g5161
atRp8150
sg1746
g5
((lp8151
g1748
atRp8152
sg1750
g5
((lp8153
g1752
ag1753
ag1754
ag530
ag1755
atRp8154
sg1757
g5
((lp8155
g1717
atRp8156
sg1760
g5
((lp8157
g1762
atRp8158
sg1764
g5
((lp8159
g1766
atRp8160
sg1768
g5
((lp8161
g1770
atRp8162
sg1772
g5
((lp8163
g1774
atRp8164
sg532
g5
((lp8165
g534
atRp8166
sg1779
g5
((lp8167
g1781
atRp8168
sg1783
g5
((lp8169
g1785
atRp8170
sg1787
g5
((lp8171
g1789
atRp8172
sg1791
g5
((lp8173
g1785
atRp8174
sg1794
g5
((lp8175
g1785
atRp8176
sg1797
g5
((lp8177
g1799
atRp8178
sg1801
g5
((lp8179
g661
atRp8180
sg1804
g5
((lp8181
g847
atRp8182
sg1810
g5
((lp8183
g15
ag718
atRp8184
sg1813
g5
((lp8185
g1815
atRp8186
sg1817
g5
((lp8187
g1819
atRp8188
sg671
g5
((lp8189
g673
ag674
atRp8190
sg1829
g5
((lp8191
g1831
atRp8192
sg1833
g5
((lp8193
g27
ag28
atRp8194
sg1836
g5
((lp8195
g1785
ag1838
ag8106
atRp8196
sS'b2417'
p8197
g5
((lp8198
g8106
atRp8199
sg1840
g5
((lp8200
g1842
atRp8201
sg1844
g5
((lp8202
g1785
ag1838
ag8106
atRp8203
sg766
g5
((lp8204
g768
atRp8205
sg1850
g5
((lp8206
g189
ag191
ag2175
ag192
ag4434
atRp8207
sg1853
g5
((lp8208
g607
atRp8209
sg511
g5
((lp8210
g180
atRp8211
sg1859
g5
((lp8212
g1861
atRp8213
sg1866
g5
((lp8214
g32
atRp8215
sg1872
g5
((lp8216
g764
atRp8217
sg1875
g5
((lp8218
g1877
atRp8219
sg1879
g5
((lp8220
g1881
ag1882
ag1883
atRp8221
sg1888
g5
((lp8222
g1890
ag459
atRp8223
sg1892
g5
((lp8224
g525
atRp8225
sg1895
g5
((lp8226
g1897
atRp8227
sg1899
g5
((lp8228
g15
atRp8229
sg1902
g5
((lp8230
g1904
atRp8231
sg1906
g5
((lp8232
g1199
atRp8233
sg1913
g5
((lp8234
g1915
ag463
ag1916
atRp8235
sg1918
g5
((lp8236
g3336
ag367
ag369
ag49
ag270
ag7469
atRp8237
sg1921
g5
((lp8238
g1923
ag1924
atRp8239
sg1926
g5
((lp8240
g1928
atRp8241
sg1930
g5
((lp8242
g861
ag862
atRp8243
sg1933
g5
((lp8244
g1928
atRp8245
sg1936
g5
((lp8246
g1938
ag1939
atRp8247
sg1941
g5
((lp8248
g1943
atRp8249
sg1945
g5
((lp8250
g1947
atRp8251
sg1949
g5
((lp8252
g1951
atRp8253
sg1953
g5
((lp8254
g1955
atRp8255
sg927
g5
((lp8256
g266
atRp8257
sg1960
g5
((lp8258
g1838
atRp8259
sg1963
g5
((lp8260
g980
atRp8261
sg1966
g5
((lp8262
g1968
atRp8263
sg1970
g5
((lp8264
g980
atRp8265
sg1973
g5
((lp8266
g1838
atRp8267
sg1976
g5
((lp8268
g1838
atRp8269
sg1982
g5
((lp8270
g1238
atRp8271
sg1909
g5
((lp8272
g1911
atRp8273
sg1988
g5
((lp8274
g599
atRp8275
sg1991
g5
((lp8276
S'F6PP'
p8277
ag1993
atRp8278
sg1480
g5
((lp8279
g954
atRp8280
sg1998
g5
((lp8281
g2000
atRp8282
sg2002
g5
((lp8283
g2004
ag2005
atRp8284
sg2007
g5
((lp8285
g2009
atRp8286
sg2011
g5
((lp8287
g1740
atRp8288
sS'b1101'
p8289
g5
((lp8290
g8106
atRp8291
sg2014
g5
((lp8292
g506
atRp8293
sg2017
g5
((lp8294
g3825
ag2019
atRp8295
sg2021
g5
((lp8296
g506
atRp8297
sg2024
g5
((lp8298
g2026
atRp8299
sg2028
g5
((lp8300
g1842
atRp8301
sg2035
g5
((lp8302
g2037
atRp8303
sg2039
g5
((lp8304
g2041
atRp8305
sg1742
g5
((lp8306
g1744
atRp8307
sg2047
g5
((lp8308
g2049
atRp8309
sg2051
g5
((lp8310
g2053
ag2054
atRp8311
sg2056
g5
((lp8312
g2058
atRp8313
sg2060
g5
((lp8314
g1184
atRp8315
sg2066
g5
((lp8316
g1255
atRp8317
sg2069
g5
((lp8318
g367
ag7469
ag3336
atRp8319
sg2072
g5
((lp8320
g2074
atRp8321
sg2076
g5
((lp8322
g2078
atRp8323
sg2080
g5
((lp8324
g2082
aS'3OAS121'
p8325
ag217
aS'3OAS141'
p8326
atRp8327
sg2084
g5
((lp8328
g2086
ag3129
atRp8329
sg2088
g5
((lp8330
g400
atRp8331
sg2091
g5
((lp8332
g2093
atRp8333
ss.